
src_cpp_language_customization_func:     file format elf64-x86-64


Disassembly of section .init:

0000000000009000 <_init>:
    9000:	f3 0f 1e fa          	endbr64 
    9004:	48 83 ec 08          	sub    $0x8,%rsp
    9008:	48 8b 05 b9 6f 05 00 	mov    0x56fb9(%rip),%rax        # 5ffc8 <__gmon_start__@Base>
    900f:	48 85 c0             	test   %rax,%rax
    9012:	74 02                	je     9016 <_init+0x16>
    9014:	ff d0                	call   *%rax
    9016:	48 83 c4 08          	add    $0x8,%rsp
    901a:	c3                   	ret    

Disassembly of section .plt:

0000000000009020 <.plt>:
    9020:	ff 35 22 69 05 00    	push   0x56922(%rip)        # 5f948 <_GLOBAL_OFFSET_TABLE_+0x8>
    9026:	f2 ff 25 23 69 05 00 	bnd jmp *0x56923(%rip)        # 5f950 <_GLOBAL_OFFSET_TABLE_+0x10>
    902d:	0f 1f 00             	nopl   (%rax)
    9030:	f3 0f 1e fa          	endbr64 
    9034:	68 00 00 00 00       	push   $0x0
    9039:	f2 e9 e1 ff ff ff    	bnd jmp 9020 <_init+0x20>
    903f:	90                   	nop
    9040:	f3 0f 1e fa          	endbr64 
    9044:	68 01 00 00 00       	push   $0x1
    9049:	f2 e9 d1 ff ff ff    	bnd jmp 9020 <_init+0x20>
    904f:	90                   	nop
    9050:	f3 0f 1e fa          	endbr64 
    9054:	68 02 00 00 00       	push   $0x2
    9059:	f2 e9 c1 ff ff ff    	bnd jmp 9020 <_init+0x20>
    905f:	90                   	nop
    9060:	f3 0f 1e fa          	endbr64 
    9064:	68 03 00 00 00       	push   $0x3
    9069:	f2 e9 b1 ff ff ff    	bnd jmp 9020 <_init+0x20>
    906f:	90                   	nop
    9070:	f3 0f 1e fa          	endbr64 
    9074:	68 04 00 00 00       	push   $0x4
    9079:	f2 e9 a1 ff ff ff    	bnd jmp 9020 <_init+0x20>
    907f:	90                   	nop
    9080:	f3 0f 1e fa          	endbr64 
    9084:	68 05 00 00 00       	push   $0x5
    9089:	f2 e9 91 ff ff ff    	bnd jmp 9020 <_init+0x20>
    908f:	90                   	nop
    9090:	f3 0f 1e fa          	endbr64 
    9094:	68 06 00 00 00       	push   $0x6
    9099:	f2 e9 81 ff ff ff    	bnd jmp 9020 <_init+0x20>
    909f:	90                   	nop
    90a0:	f3 0f 1e fa          	endbr64 
    90a4:	68 07 00 00 00       	push   $0x7
    90a9:	f2 e9 71 ff ff ff    	bnd jmp 9020 <_init+0x20>
    90af:	90                   	nop
    90b0:	f3 0f 1e fa          	endbr64 
    90b4:	68 08 00 00 00       	push   $0x8
    90b9:	f2 e9 61 ff ff ff    	bnd jmp 9020 <_init+0x20>
    90bf:	90                   	nop
    90c0:	f3 0f 1e fa          	endbr64 
    90c4:	68 09 00 00 00       	push   $0x9
    90c9:	f2 e9 51 ff ff ff    	bnd jmp 9020 <_init+0x20>
    90cf:	90                   	nop
    90d0:	f3 0f 1e fa          	endbr64 
    90d4:	68 0a 00 00 00       	push   $0xa
    90d9:	f2 e9 41 ff ff ff    	bnd jmp 9020 <_init+0x20>
    90df:	90                   	nop
    90e0:	f3 0f 1e fa          	endbr64 
    90e4:	68 0b 00 00 00       	push   $0xb
    90e9:	f2 e9 31 ff ff ff    	bnd jmp 9020 <_init+0x20>
    90ef:	90                   	nop
    90f0:	f3 0f 1e fa          	endbr64 
    90f4:	68 0c 00 00 00       	push   $0xc
    90f9:	f2 e9 21 ff ff ff    	bnd jmp 9020 <_init+0x20>
    90ff:	90                   	nop
    9100:	f3 0f 1e fa          	endbr64 
    9104:	68 0d 00 00 00       	push   $0xd
    9109:	f2 e9 11 ff ff ff    	bnd jmp 9020 <_init+0x20>
    910f:	90                   	nop
    9110:	f3 0f 1e fa          	endbr64 
    9114:	68 0e 00 00 00       	push   $0xe
    9119:	f2 e9 01 ff ff ff    	bnd jmp 9020 <_init+0x20>
    911f:	90                   	nop
    9120:	f3 0f 1e fa          	endbr64 
    9124:	68 0f 00 00 00       	push   $0xf
    9129:	f2 e9 f1 fe ff ff    	bnd jmp 9020 <_init+0x20>
    912f:	90                   	nop
    9130:	f3 0f 1e fa          	endbr64 
    9134:	68 10 00 00 00       	push   $0x10
    9139:	f2 e9 e1 fe ff ff    	bnd jmp 9020 <_init+0x20>
    913f:	90                   	nop
    9140:	f3 0f 1e fa          	endbr64 
    9144:	68 11 00 00 00       	push   $0x11
    9149:	f2 e9 d1 fe ff ff    	bnd jmp 9020 <_init+0x20>
    914f:	90                   	nop
    9150:	f3 0f 1e fa          	endbr64 
    9154:	68 12 00 00 00       	push   $0x12
    9159:	f2 e9 c1 fe ff ff    	bnd jmp 9020 <_init+0x20>
    915f:	90                   	nop
    9160:	f3 0f 1e fa          	endbr64 
    9164:	68 13 00 00 00       	push   $0x13
    9169:	f2 e9 b1 fe ff ff    	bnd jmp 9020 <_init+0x20>
    916f:	90                   	nop
    9170:	f3 0f 1e fa          	endbr64 
    9174:	68 14 00 00 00       	push   $0x14
    9179:	f2 e9 a1 fe ff ff    	bnd jmp 9020 <_init+0x20>
    917f:	90                   	nop
    9180:	f3 0f 1e fa          	endbr64 
    9184:	68 15 00 00 00       	push   $0x15
    9189:	f2 e9 91 fe ff ff    	bnd jmp 9020 <_init+0x20>
    918f:	90                   	nop
    9190:	f3 0f 1e fa          	endbr64 
    9194:	68 16 00 00 00       	push   $0x16
    9199:	f2 e9 81 fe ff ff    	bnd jmp 9020 <_init+0x20>
    919f:	90                   	nop
    91a0:	f3 0f 1e fa          	endbr64 
    91a4:	68 17 00 00 00       	push   $0x17
    91a9:	f2 e9 71 fe ff ff    	bnd jmp 9020 <_init+0x20>
    91af:	90                   	nop
    91b0:	f3 0f 1e fa          	endbr64 
    91b4:	68 18 00 00 00       	push   $0x18
    91b9:	f2 e9 61 fe ff ff    	bnd jmp 9020 <_init+0x20>
    91bf:	90                   	nop
    91c0:	f3 0f 1e fa          	endbr64 
    91c4:	68 19 00 00 00       	push   $0x19
    91c9:	f2 e9 51 fe ff ff    	bnd jmp 9020 <_init+0x20>
    91cf:	90                   	nop
    91d0:	f3 0f 1e fa          	endbr64 
    91d4:	68 1a 00 00 00       	push   $0x1a
    91d9:	f2 e9 41 fe ff ff    	bnd jmp 9020 <_init+0x20>
    91df:	90                   	nop
    91e0:	f3 0f 1e fa          	endbr64 
    91e4:	68 1b 00 00 00       	push   $0x1b
    91e9:	f2 e9 31 fe ff ff    	bnd jmp 9020 <_init+0x20>
    91ef:	90                   	nop
    91f0:	f3 0f 1e fa          	endbr64 
    91f4:	68 1c 00 00 00       	push   $0x1c
    91f9:	f2 e9 21 fe ff ff    	bnd jmp 9020 <_init+0x20>
    91ff:	90                   	nop
    9200:	f3 0f 1e fa          	endbr64 
    9204:	68 1d 00 00 00       	push   $0x1d
    9209:	f2 e9 11 fe ff ff    	bnd jmp 9020 <_init+0x20>
    920f:	90                   	nop
    9210:	f3 0f 1e fa          	endbr64 
    9214:	68 1e 00 00 00       	push   $0x1e
    9219:	f2 e9 01 fe ff ff    	bnd jmp 9020 <_init+0x20>
    921f:	90                   	nop
    9220:	f3 0f 1e fa          	endbr64 
    9224:	68 1f 00 00 00       	push   $0x1f
    9229:	f2 e9 f1 fd ff ff    	bnd jmp 9020 <_init+0x20>
    922f:	90                   	nop
    9230:	f3 0f 1e fa          	endbr64 
    9234:	68 20 00 00 00       	push   $0x20
    9239:	f2 e9 e1 fd ff ff    	bnd jmp 9020 <_init+0x20>
    923f:	90                   	nop
    9240:	f3 0f 1e fa          	endbr64 
    9244:	68 21 00 00 00       	push   $0x21
    9249:	f2 e9 d1 fd ff ff    	bnd jmp 9020 <_init+0x20>
    924f:	90                   	nop
    9250:	f3 0f 1e fa          	endbr64 
    9254:	68 22 00 00 00       	push   $0x22
    9259:	f2 e9 c1 fd ff ff    	bnd jmp 9020 <_init+0x20>
    925f:	90                   	nop
    9260:	f3 0f 1e fa          	endbr64 
    9264:	68 23 00 00 00       	push   $0x23
    9269:	f2 e9 b1 fd ff ff    	bnd jmp 9020 <_init+0x20>
    926f:	90                   	nop
    9270:	f3 0f 1e fa          	endbr64 
    9274:	68 24 00 00 00       	push   $0x24
    9279:	f2 e9 a1 fd ff ff    	bnd jmp 9020 <_init+0x20>
    927f:	90                   	nop
    9280:	f3 0f 1e fa          	endbr64 
    9284:	68 25 00 00 00       	push   $0x25
    9289:	f2 e9 91 fd ff ff    	bnd jmp 9020 <_init+0x20>
    928f:	90                   	nop
    9290:	f3 0f 1e fa          	endbr64 
    9294:	68 26 00 00 00       	push   $0x26
    9299:	f2 e9 81 fd ff ff    	bnd jmp 9020 <_init+0x20>
    929f:	90                   	nop
    92a0:	f3 0f 1e fa          	endbr64 
    92a4:	68 27 00 00 00       	push   $0x27
    92a9:	f2 e9 71 fd ff ff    	bnd jmp 9020 <_init+0x20>
    92af:	90                   	nop
    92b0:	f3 0f 1e fa          	endbr64 
    92b4:	68 28 00 00 00       	push   $0x28
    92b9:	f2 e9 61 fd ff ff    	bnd jmp 9020 <_init+0x20>
    92bf:	90                   	nop
    92c0:	f3 0f 1e fa          	endbr64 
    92c4:	68 29 00 00 00       	push   $0x29
    92c9:	f2 e9 51 fd ff ff    	bnd jmp 9020 <_init+0x20>
    92cf:	90                   	nop
    92d0:	f3 0f 1e fa          	endbr64 
    92d4:	68 2a 00 00 00       	push   $0x2a
    92d9:	f2 e9 41 fd ff ff    	bnd jmp 9020 <_init+0x20>
    92df:	90                   	nop
    92e0:	f3 0f 1e fa          	endbr64 
    92e4:	68 2b 00 00 00       	push   $0x2b
    92e9:	f2 e9 31 fd ff ff    	bnd jmp 9020 <_init+0x20>
    92ef:	90                   	nop
    92f0:	f3 0f 1e fa          	endbr64 
    92f4:	68 2c 00 00 00       	push   $0x2c
    92f9:	f2 e9 21 fd ff ff    	bnd jmp 9020 <_init+0x20>
    92ff:	90                   	nop
    9300:	f3 0f 1e fa          	endbr64 
    9304:	68 2d 00 00 00       	push   $0x2d
    9309:	f2 e9 11 fd ff ff    	bnd jmp 9020 <_init+0x20>
    930f:	90                   	nop
    9310:	f3 0f 1e fa          	endbr64 
    9314:	68 2e 00 00 00       	push   $0x2e
    9319:	f2 e9 01 fd ff ff    	bnd jmp 9020 <_init+0x20>
    931f:	90                   	nop
    9320:	f3 0f 1e fa          	endbr64 
    9324:	68 2f 00 00 00       	push   $0x2f
    9329:	f2 e9 f1 fc ff ff    	bnd jmp 9020 <_init+0x20>
    932f:	90                   	nop
    9330:	f3 0f 1e fa          	endbr64 
    9334:	68 30 00 00 00       	push   $0x30
    9339:	f2 e9 e1 fc ff ff    	bnd jmp 9020 <_init+0x20>
    933f:	90                   	nop
    9340:	f3 0f 1e fa          	endbr64 
    9344:	68 31 00 00 00       	push   $0x31
    9349:	f2 e9 d1 fc ff ff    	bnd jmp 9020 <_init+0x20>
    934f:	90                   	nop
    9350:	f3 0f 1e fa          	endbr64 
    9354:	68 32 00 00 00       	push   $0x32
    9359:	f2 e9 c1 fc ff ff    	bnd jmp 9020 <_init+0x20>
    935f:	90                   	nop
    9360:	f3 0f 1e fa          	endbr64 
    9364:	68 33 00 00 00       	push   $0x33
    9369:	f2 e9 b1 fc ff ff    	bnd jmp 9020 <_init+0x20>
    936f:	90                   	nop
    9370:	f3 0f 1e fa          	endbr64 
    9374:	68 34 00 00 00       	push   $0x34
    9379:	f2 e9 a1 fc ff ff    	bnd jmp 9020 <_init+0x20>
    937f:	90                   	nop
    9380:	f3 0f 1e fa          	endbr64 
    9384:	68 35 00 00 00       	push   $0x35
    9389:	f2 e9 91 fc ff ff    	bnd jmp 9020 <_init+0x20>
    938f:	90                   	nop
    9390:	f3 0f 1e fa          	endbr64 
    9394:	68 36 00 00 00       	push   $0x36
    9399:	f2 e9 81 fc ff ff    	bnd jmp 9020 <_init+0x20>
    939f:	90                   	nop
    93a0:	f3 0f 1e fa          	endbr64 
    93a4:	68 37 00 00 00       	push   $0x37
    93a9:	f2 e9 71 fc ff ff    	bnd jmp 9020 <_init+0x20>
    93af:	90                   	nop
    93b0:	f3 0f 1e fa          	endbr64 
    93b4:	68 38 00 00 00       	push   $0x38
    93b9:	f2 e9 61 fc ff ff    	bnd jmp 9020 <_init+0x20>
    93bf:	90                   	nop
    93c0:	f3 0f 1e fa          	endbr64 
    93c4:	68 39 00 00 00       	push   $0x39
    93c9:	f2 e9 51 fc ff ff    	bnd jmp 9020 <_init+0x20>
    93cf:	90                   	nop
    93d0:	f3 0f 1e fa          	endbr64 
    93d4:	68 3a 00 00 00       	push   $0x3a
    93d9:	f2 e9 41 fc ff ff    	bnd jmp 9020 <_init+0x20>
    93df:	90                   	nop
    93e0:	f3 0f 1e fa          	endbr64 
    93e4:	68 3b 00 00 00       	push   $0x3b
    93e9:	f2 e9 31 fc ff ff    	bnd jmp 9020 <_init+0x20>
    93ef:	90                   	nop
    93f0:	f3 0f 1e fa          	endbr64 
    93f4:	68 3c 00 00 00       	push   $0x3c
    93f9:	f2 e9 21 fc ff ff    	bnd jmp 9020 <_init+0x20>
    93ff:	90                   	nop
    9400:	f3 0f 1e fa          	endbr64 
    9404:	68 3d 00 00 00       	push   $0x3d
    9409:	f2 e9 11 fc ff ff    	bnd jmp 9020 <_init+0x20>
    940f:	90                   	nop
    9410:	f3 0f 1e fa          	endbr64 
    9414:	68 3e 00 00 00       	push   $0x3e
    9419:	f2 e9 01 fc ff ff    	bnd jmp 9020 <_init+0x20>
    941f:	90                   	nop
    9420:	f3 0f 1e fa          	endbr64 
    9424:	68 3f 00 00 00       	push   $0x3f
    9429:	f2 e9 f1 fb ff ff    	bnd jmp 9020 <_init+0x20>
    942f:	90                   	nop
    9430:	f3 0f 1e fa          	endbr64 
    9434:	68 40 00 00 00       	push   $0x40
    9439:	f2 e9 e1 fb ff ff    	bnd jmp 9020 <_init+0x20>
    943f:	90                   	nop
    9440:	f3 0f 1e fa          	endbr64 
    9444:	68 41 00 00 00       	push   $0x41
    9449:	f2 e9 d1 fb ff ff    	bnd jmp 9020 <_init+0x20>
    944f:	90                   	nop
    9450:	f3 0f 1e fa          	endbr64 
    9454:	68 42 00 00 00       	push   $0x42
    9459:	f2 e9 c1 fb ff ff    	bnd jmp 9020 <_init+0x20>
    945f:	90                   	nop
    9460:	f3 0f 1e fa          	endbr64 
    9464:	68 43 00 00 00       	push   $0x43
    9469:	f2 e9 b1 fb ff ff    	bnd jmp 9020 <_init+0x20>
    946f:	90                   	nop
    9470:	f3 0f 1e fa          	endbr64 
    9474:	68 44 00 00 00       	push   $0x44
    9479:	f2 e9 a1 fb ff ff    	bnd jmp 9020 <_init+0x20>
    947f:	90                   	nop
    9480:	f3 0f 1e fa          	endbr64 
    9484:	68 45 00 00 00       	push   $0x45
    9489:	f2 e9 91 fb ff ff    	bnd jmp 9020 <_init+0x20>
    948f:	90                   	nop
    9490:	f3 0f 1e fa          	endbr64 
    9494:	68 46 00 00 00       	push   $0x46
    9499:	f2 e9 81 fb ff ff    	bnd jmp 9020 <_init+0x20>
    949f:	90                   	nop
    94a0:	f3 0f 1e fa          	endbr64 
    94a4:	68 47 00 00 00       	push   $0x47
    94a9:	f2 e9 71 fb ff ff    	bnd jmp 9020 <_init+0x20>
    94af:	90                   	nop
    94b0:	f3 0f 1e fa          	endbr64 
    94b4:	68 48 00 00 00       	push   $0x48
    94b9:	f2 e9 61 fb ff ff    	bnd jmp 9020 <_init+0x20>
    94bf:	90                   	nop
    94c0:	f3 0f 1e fa          	endbr64 
    94c4:	68 49 00 00 00       	push   $0x49
    94c9:	f2 e9 51 fb ff ff    	bnd jmp 9020 <_init+0x20>
    94cf:	90                   	nop
    94d0:	f3 0f 1e fa          	endbr64 
    94d4:	68 4a 00 00 00       	push   $0x4a
    94d9:	f2 e9 41 fb ff ff    	bnd jmp 9020 <_init+0x20>
    94df:	90                   	nop
    94e0:	f3 0f 1e fa          	endbr64 
    94e4:	68 4b 00 00 00       	push   $0x4b
    94e9:	f2 e9 31 fb ff ff    	bnd jmp 9020 <_init+0x20>
    94ef:	90                   	nop
    94f0:	f3 0f 1e fa          	endbr64 
    94f4:	68 4c 00 00 00       	push   $0x4c
    94f9:	f2 e9 21 fb ff ff    	bnd jmp 9020 <_init+0x20>
    94ff:	90                   	nop
    9500:	f3 0f 1e fa          	endbr64 
    9504:	68 4d 00 00 00       	push   $0x4d
    9509:	f2 e9 11 fb ff ff    	bnd jmp 9020 <_init+0x20>
    950f:	90                   	nop
    9510:	f3 0f 1e fa          	endbr64 
    9514:	68 4e 00 00 00       	push   $0x4e
    9519:	f2 e9 01 fb ff ff    	bnd jmp 9020 <_init+0x20>
    951f:	90                   	nop
    9520:	f3 0f 1e fa          	endbr64 
    9524:	68 4f 00 00 00       	push   $0x4f
    9529:	f2 e9 f1 fa ff ff    	bnd jmp 9020 <_init+0x20>
    952f:	90                   	nop
    9530:	f3 0f 1e fa          	endbr64 
    9534:	68 50 00 00 00       	push   $0x50
    9539:	f2 e9 e1 fa ff ff    	bnd jmp 9020 <_init+0x20>
    953f:	90                   	nop
    9540:	f3 0f 1e fa          	endbr64 
    9544:	68 51 00 00 00       	push   $0x51
    9549:	f2 e9 d1 fa ff ff    	bnd jmp 9020 <_init+0x20>
    954f:	90                   	nop
    9550:	f3 0f 1e fa          	endbr64 
    9554:	68 52 00 00 00       	push   $0x52
    9559:	f2 e9 c1 fa ff ff    	bnd jmp 9020 <_init+0x20>
    955f:	90                   	nop
    9560:	f3 0f 1e fa          	endbr64 
    9564:	68 53 00 00 00       	push   $0x53
    9569:	f2 e9 b1 fa ff ff    	bnd jmp 9020 <_init+0x20>
    956f:	90                   	nop
    9570:	f3 0f 1e fa          	endbr64 
    9574:	68 54 00 00 00       	push   $0x54
    9579:	f2 e9 a1 fa ff ff    	bnd jmp 9020 <_init+0x20>
    957f:	90                   	nop
    9580:	f3 0f 1e fa          	endbr64 
    9584:	68 55 00 00 00       	push   $0x55
    9589:	f2 e9 91 fa ff ff    	bnd jmp 9020 <_init+0x20>
    958f:	90                   	nop
    9590:	f3 0f 1e fa          	endbr64 
    9594:	68 56 00 00 00       	push   $0x56
    9599:	f2 e9 81 fa ff ff    	bnd jmp 9020 <_init+0x20>
    959f:	90                   	nop
    95a0:	f3 0f 1e fa          	endbr64 
    95a4:	68 57 00 00 00       	push   $0x57
    95a9:	f2 e9 71 fa ff ff    	bnd jmp 9020 <_init+0x20>
    95af:	90                   	nop
    95b0:	f3 0f 1e fa          	endbr64 
    95b4:	68 58 00 00 00       	push   $0x58
    95b9:	f2 e9 61 fa ff ff    	bnd jmp 9020 <_init+0x20>
    95bf:	90                   	nop
    95c0:	f3 0f 1e fa          	endbr64 
    95c4:	68 59 00 00 00       	push   $0x59
    95c9:	f2 e9 51 fa ff ff    	bnd jmp 9020 <_init+0x20>
    95cf:	90                   	nop
    95d0:	f3 0f 1e fa          	endbr64 
    95d4:	68 5a 00 00 00       	push   $0x5a
    95d9:	f2 e9 41 fa ff ff    	bnd jmp 9020 <_init+0x20>
    95df:	90                   	nop
    95e0:	f3 0f 1e fa          	endbr64 
    95e4:	68 5b 00 00 00       	push   $0x5b
    95e9:	f2 e9 31 fa ff ff    	bnd jmp 9020 <_init+0x20>
    95ef:	90                   	nop
    95f0:	f3 0f 1e fa          	endbr64 
    95f4:	68 5c 00 00 00       	push   $0x5c
    95f9:	f2 e9 21 fa ff ff    	bnd jmp 9020 <_init+0x20>
    95ff:	90                   	nop
    9600:	f3 0f 1e fa          	endbr64 
    9604:	68 5d 00 00 00       	push   $0x5d
    9609:	f2 e9 11 fa ff ff    	bnd jmp 9020 <_init+0x20>
    960f:	90                   	nop
    9610:	f3 0f 1e fa          	endbr64 
    9614:	68 5e 00 00 00       	push   $0x5e
    9619:	f2 e9 01 fa ff ff    	bnd jmp 9020 <_init+0x20>
    961f:	90                   	nop
    9620:	f3 0f 1e fa          	endbr64 
    9624:	68 5f 00 00 00       	push   $0x5f
    9629:	f2 e9 f1 f9 ff ff    	bnd jmp 9020 <_init+0x20>
    962f:	90                   	nop
    9630:	f3 0f 1e fa          	endbr64 
    9634:	68 60 00 00 00       	push   $0x60
    9639:	f2 e9 e1 f9 ff ff    	bnd jmp 9020 <_init+0x20>
    963f:	90                   	nop
    9640:	f3 0f 1e fa          	endbr64 
    9644:	68 61 00 00 00       	push   $0x61
    9649:	f2 e9 d1 f9 ff ff    	bnd jmp 9020 <_init+0x20>
    964f:	90                   	nop
    9650:	f3 0f 1e fa          	endbr64 
    9654:	68 62 00 00 00       	push   $0x62
    9659:	f2 e9 c1 f9 ff ff    	bnd jmp 9020 <_init+0x20>
    965f:	90                   	nop
    9660:	f3 0f 1e fa          	endbr64 
    9664:	68 63 00 00 00       	push   $0x63
    9669:	f2 e9 b1 f9 ff ff    	bnd jmp 9020 <_init+0x20>
    966f:	90                   	nop
    9670:	f3 0f 1e fa          	endbr64 
    9674:	68 64 00 00 00       	push   $0x64
    9679:	f2 e9 a1 f9 ff ff    	bnd jmp 9020 <_init+0x20>
    967f:	90                   	nop
    9680:	f3 0f 1e fa          	endbr64 
    9684:	68 65 00 00 00       	push   $0x65
    9689:	f2 e9 91 f9 ff ff    	bnd jmp 9020 <_init+0x20>
    968f:	90                   	nop
    9690:	f3 0f 1e fa          	endbr64 
    9694:	68 66 00 00 00       	push   $0x66
    9699:	f2 e9 81 f9 ff ff    	bnd jmp 9020 <_init+0x20>
    969f:	90                   	nop
    96a0:	f3 0f 1e fa          	endbr64 
    96a4:	68 67 00 00 00       	push   $0x67
    96a9:	f2 e9 71 f9 ff ff    	bnd jmp 9020 <_init+0x20>
    96af:	90                   	nop
    96b0:	f3 0f 1e fa          	endbr64 
    96b4:	68 68 00 00 00       	push   $0x68
    96b9:	f2 e9 61 f9 ff ff    	bnd jmp 9020 <_init+0x20>
    96bf:	90                   	nop
    96c0:	f3 0f 1e fa          	endbr64 
    96c4:	68 69 00 00 00       	push   $0x69
    96c9:	f2 e9 51 f9 ff ff    	bnd jmp 9020 <_init+0x20>
    96cf:	90                   	nop
    96d0:	f3 0f 1e fa          	endbr64 
    96d4:	68 6a 00 00 00       	push   $0x6a
    96d9:	f2 e9 41 f9 ff ff    	bnd jmp 9020 <_init+0x20>
    96df:	90                   	nop
    96e0:	f3 0f 1e fa          	endbr64 
    96e4:	68 6b 00 00 00       	push   $0x6b
    96e9:	f2 e9 31 f9 ff ff    	bnd jmp 9020 <_init+0x20>
    96ef:	90                   	nop
    96f0:	f3 0f 1e fa          	endbr64 
    96f4:	68 6c 00 00 00       	push   $0x6c
    96f9:	f2 e9 21 f9 ff ff    	bnd jmp 9020 <_init+0x20>
    96ff:	90                   	nop
    9700:	f3 0f 1e fa          	endbr64 
    9704:	68 6d 00 00 00       	push   $0x6d
    9709:	f2 e9 11 f9 ff ff    	bnd jmp 9020 <_init+0x20>
    970f:	90                   	nop
    9710:	f3 0f 1e fa          	endbr64 
    9714:	68 6e 00 00 00       	push   $0x6e
    9719:	f2 e9 01 f9 ff ff    	bnd jmp 9020 <_init+0x20>
    971f:	90                   	nop
    9720:	f3 0f 1e fa          	endbr64 
    9724:	68 6f 00 00 00       	push   $0x6f
    9729:	f2 e9 f1 f8 ff ff    	bnd jmp 9020 <_init+0x20>
    972f:	90                   	nop
    9730:	f3 0f 1e fa          	endbr64 
    9734:	68 70 00 00 00       	push   $0x70
    9739:	f2 e9 e1 f8 ff ff    	bnd jmp 9020 <_init+0x20>
    973f:	90                   	nop
    9740:	f3 0f 1e fa          	endbr64 
    9744:	68 71 00 00 00       	push   $0x71
    9749:	f2 e9 d1 f8 ff ff    	bnd jmp 9020 <_init+0x20>
    974f:	90                   	nop
    9750:	f3 0f 1e fa          	endbr64 
    9754:	68 72 00 00 00       	push   $0x72
    9759:	f2 e9 c1 f8 ff ff    	bnd jmp 9020 <_init+0x20>
    975f:	90                   	nop
    9760:	f3 0f 1e fa          	endbr64 
    9764:	68 73 00 00 00       	push   $0x73
    9769:	f2 e9 b1 f8 ff ff    	bnd jmp 9020 <_init+0x20>
    976f:	90                   	nop
    9770:	f3 0f 1e fa          	endbr64 
    9774:	68 74 00 00 00       	push   $0x74
    9779:	f2 e9 a1 f8 ff ff    	bnd jmp 9020 <_init+0x20>
    977f:	90                   	nop
    9780:	f3 0f 1e fa          	endbr64 
    9784:	68 75 00 00 00       	push   $0x75
    9789:	f2 e9 91 f8 ff ff    	bnd jmp 9020 <_init+0x20>
    978f:	90                   	nop
    9790:	f3 0f 1e fa          	endbr64 
    9794:	68 76 00 00 00       	push   $0x76
    9799:	f2 e9 81 f8 ff ff    	bnd jmp 9020 <_init+0x20>
    979f:	90                   	nop
    97a0:	f3 0f 1e fa          	endbr64 
    97a4:	68 77 00 00 00       	push   $0x77
    97a9:	f2 e9 71 f8 ff ff    	bnd jmp 9020 <_init+0x20>
    97af:	90                   	nop
    97b0:	f3 0f 1e fa          	endbr64 
    97b4:	68 78 00 00 00       	push   $0x78
    97b9:	f2 e9 61 f8 ff ff    	bnd jmp 9020 <_init+0x20>
    97bf:	90                   	nop
    97c0:	f3 0f 1e fa          	endbr64 
    97c4:	68 79 00 00 00       	push   $0x79
    97c9:	f2 e9 51 f8 ff ff    	bnd jmp 9020 <_init+0x20>
    97cf:	90                   	nop
    97d0:	f3 0f 1e fa          	endbr64 
    97d4:	68 7a 00 00 00       	push   $0x7a
    97d9:	f2 e9 41 f8 ff ff    	bnd jmp 9020 <_init+0x20>
    97df:	90                   	nop
    97e0:	f3 0f 1e fa          	endbr64 
    97e4:	68 7b 00 00 00       	push   $0x7b
    97e9:	f2 e9 31 f8 ff ff    	bnd jmp 9020 <_init+0x20>
    97ef:	90                   	nop
    97f0:	f3 0f 1e fa          	endbr64 
    97f4:	68 7c 00 00 00       	push   $0x7c
    97f9:	f2 e9 21 f8 ff ff    	bnd jmp 9020 <_init+0x20>
    97ff:	90                   	nop
    9800:	f3 0f 1e fa          	endbr64 
    9804:	68 7d 00 00 00       	push   $0x7d
    9809:	f2 e9 11 f8 ff ff    	bnd jmp 9020 <_init+0x20>
    980f:	90                   	nop
    9810:	f3 0f 1e fa          	endbr64 
    9814:	68 7e 00 00 00       	push   $0x7e
    9819:	f2 e9 01 f8 ff ff    	bnd jmp 9020 <_init+0x20>
    981f:	90                   	nop
    9820:	f3 0f 1e fa          	endbr64 
    9824:	68 7f 00 00 00       	push   $0x7f
    9829:	f2 e9 f1 f7 ff ff    	bnd jmp 9020 <_init+0x20>
    982f:	90                   	nop
    9830:	f3 0f 1e fa          	endbr64 
    9834:	68 80 00 00 00       	push   $0x80
    9839:	f2 e9 e1 f7 ff ff    	bnd jmp 9020 <_init+0x20>
    983f:	90                   	nop
    9840:	f3 0f 1e fa          	endbr64 
    9844:	68 81 00 00 00       	push   $0x81
    9849:	f2 e9 d1 f7 ff ff    	bnd jmp 9020 <_init+0x20>
    984f:	90                   	nop
    9850:	f3 0f 1e fa          	endbr64 
    9854:	68 82 00 00 00       	push   $0x82
    9859:	f2 e9 c1 f7 ff ff    	bnd jmp 9020 <_init+0x20>
    985f:	90                   	nop
    9860:	f3 0f 1e fa          	endbr64 
    9864:	68 83 00 00 00       	push   $0x83
    9869:	f2 e9 b1 f7 ff ff    	bnd jmp 9020 <_init+0x20>
    986f:	90                   	nop
    9870:	f3 0f 1e fa          	endbr64 
    9874:	68 84 00 00 00       	push   $0x84
    9879:	f2 e9 a1 f7 ff ff    	bnd jmp 9020 <_init+0x20>
    987f:	90                   	nop
    9880:	f3 0f 1e fa          	endbr64 
    9884:	68 85 00 00 00       	push   $0x85
    9889:	f2 e9 91 f7 ff ff    	bnd jmp 9020 <_init+0x20>
    988f:	90                   	nop
    9890:	f3 0f 1e fa          	endbr64 
    9894:	68 86 00 00 00       	push   $0x86
    9899:	f2 e9 81 f7 ff ff    	bnd jmp 9020 <_init+0x20>
    989f:	90                   	nop
    98a0:	f3 0f 1e fa          	endbr64 
    98a4:	68 87 00 00 00       	push   $0x87
    98a9:	f2 e9 71 f7 ff ff    	bnd jmp 9020 <_init+0x20>
    98af:	90                   	nop
    98b0:	f3 0f 1e fa          	endbr64 
    98b4:	68 88 00 00 00       	push   $0x88
    98b9:	f2 e9 61 f7 ff ff    	bnd jmp 9020 <_init+0x20>
    98bf:	90                   	nop
    98c0:	f3 0f 1e fa          	endbr64 
    98c4:	68 89 00 00 00       	push   $0x89
    98c9:	f2 e9 51 f7 ff ff    	bnd jmp 9020 <_init+0x20>
    98cf:	90                   	nop
    98d0:	f3 0f 1e fa          	endbr64 
    98d4:	68 8a 00 00 00       	push   $0x8a
    98d9:	f2 e9 41 f7 ff ff    	bnd jmp 9020 <_init+0x20>
    98df:	90                   	nop
    98e0:	f3 0f 1e fa          	endbr64 
    98e4:	68 8b 00 00 00       	push   $0x8b
    98e9:	f2 e9 31 f7 ff ff    	bnd jmp 9020 <_init+0x20>
    98ef:	90                   	nop
    98f0:	f3 0f 1e fa          	endbr64 
    98f4:	68 8c 00 00 00       	push   $0x8c
    98f9:	f2 e9 21 f7 ff ff    	bnd jmp 9020 <_init+0x20>
    98ff:	90                   	nop
    9900:	f3 0f 1e fa          	endbr64 
    9904:	68 8d 00 00 00       	push   $0x8d
    9909:	f2 e9 11 f7 ff ff    	bnd jmp 9020 <_init+0x20>
    990f:	90                   	nop
    9910:	f3 0f 1e fa          	endbr64 
    9914:	68 8e 00 00 00       	push   $0x8e
    9919:	f2 e9 01 f7 ff ff    	bnd jmp 9020 <_init+0x20>
    991f:	90                   	nop
    9920:	f3 0f 1e fa          	endbr64 
    9924:	68 8f 00 00 00       	push   $0x8f
    9929:	f2 e9 f1 f6 ff ff    	bnd jmp 9020 <_init+0x20>
    992f:	90                   	nop
    9930:	f3 0f 1e fa          	endbr64 
    9934:	68 90 00 00 00       	push   $0x90
    9939:	f2 e9 e1 f6 ff ff    	bnd jmp 9020 <_init+0x20>
    993f:	90                   	nop
    9940:	f3 0f 1e fa          	endbr64 
    9944:	68 91 00 00 00       	push   $0x91
    9949:	f2 e9 d1 f6 ff ff    	bnd jmp 9020 <_init+0x20>
    994f:	90                   	nop
    9950:	f3 0f 1e fa          	endbr64 
    9954:	68 92 00 00 00       	push   $0x92
    9959:	f2 e9 c1 f6 ff ff    	bnd jmp 9020 <_init+0x20>
    995f:	90                   	nop
    9960:	f3 0f 1e fa          	endbr64 
    9964:	68 93 00 00 00       	push   $0x93
    9969:	f2 e9 b1 f6 ff ff    	bnd jmp 9020 <_init+0x20>
    996f:	90                   	nop
    9970:	f3 0f 1e fa          	endbr64 
    9974:	68 94 00 00 00       	push   $0x94
    9979:	f2 e9 a1 f6 ff ff    	bnd jmp 9020 <_init+0x20>
    997f:	90                   	nop
    9980:	f3 0f 1e fa          	endbr64 
    9984:	68 95 00 00 00       	push   $0x95
    9989:	f2 e9 91 f6 ff ff    	bnd jmp 9020 <_init+0x20>
    998f:	90                   	nop
    9990:	f3 0f 1e fa          	endbr64 
    9994:	68 96 00 00 00       	push   $0x96
    9999:	f2 e9 81 f6 ff ff    	bnd jmp 9020 <_init+0x20>
    999f:	90                   	nop
    99a0:	f3 0f 1e fa          	endbr64 
    99a4:	68 97 00 00 00       	push   $0x97
    99a9:	f2 e9 71 f6 ff ff    	bnd jmp 9020 <_init+0x20>
    99af:	90                   	nop
    99b0:	f3 0f 1e fa          	endbr64 
    99b4:	68 98 00 00 00       	push   $0x98
    99b9:	f2 e9 61 f6 ff ff    	bnd jmp 9020 <_init+0x20>
    99bf:	90                   	nop
    99c0:	f3 0f 1e fa          	endbr64 
    99c4:	68 99 00 00 00       	push   $0x99
    99c9:	f2 e9 51 f6 ff ff    	bnd jmp 9020 <_init+0x20>
    99cf:	90                   	nop
    99d0:	f3 0f 1e fa          	endbr64 
    99d4:	68 9a 00 00 00       	push   $0x9a
    99d9:	f2 e9 41 f6 ff ff    	bnd jmp 9020 <_init+0x20>
    99df:	90                   	nop
    99e0:	f3 0f 1e fa          	endbr64 
    99e4:	68 9b 00 00 00       	push   $0x9b
    99e9:	f2 e9 31 f6 ff ff    	bnd jmp 9020 <_init+0x20>
    99ef:	90                   	nop
    99f0:	f3 0f 1e fa          	endbr64 
    99f4:	68 9c 00 00 00       	push   $0x9c
    99f9:	f2 e9 21 f6 ff ff    	bnd jmp 9020 <_init+0x20>
    99ff:	90                   	nop
    9a00:	f3 0f 1e fa          	endbr64 
    9a04:	68 9d 00 00 00       	push   $0x9d
    9a09:	f2 e9 11 f6 ff ff    	bnd jmp 9020 <_init+0x20>
    9a0f:	90                   	nop
    9a10:	f3 0f 1e fa          	endbr64 
    9a14:	68 9e 00 00 00       	push   $0x9e
    9a19:	f2 e9 01 f6 ff ff    	bnd jmp 9020 <_init+0x20>
    9a1f:	90                   	nop
    9a20:	f3 0f 1e fa          	endbr64 
    9a24:	68 9f 00 00 00       	push   $0x9f
    9a29:	f2 e9 f1 f5 ff ff    	bnd jmp 9020 <_init+0x20>
    9a2f:	90                   	nop
    9a30:	f3 0f 1e fa          	endbr64 
    9a34:	68 a0 00 00 00       	push   $0xa0
    9a39:	f2 e9 e1 f5 ff ff    	bnd jmp 9020 <_init+0x20>
    9a3f:	90                   	nop
    9a40:	f3 0f 1e fa          	endbr64 
    9a44:	68 a1 00 00 00       	push   $0xa1
    9a49:	f2 e9 d1 f5 ff ff    	bnd jmp 9020 <_init+0x20>
    9a4f:	90                   	nop
    9a50:	f3 0f 1e fa          	endbr64 
    9a54:	68 a2 00 00 00       	push   $0xa2
    9a59:	f2 e9 c1 f5 ff ff    	bnd jmp 9020 <_init+0x20>
    9a5f:	90                   	nop
    9a60:	f3 0f 1e fa          	endbr64 
    9a64:	68 a3 00 00 00       	push   $0xa3
    9a69:	f2 e9 b1 f5 ff ff    	bnd jmp 9020 <_init+0x20>
    9a6f:	90                   	nop
    9a70:	f3 0f 1e fa          	endbr64 
    9a74:	68 a4 00 00 00       	push   $0xa4
    9a79:	f2 e9 a1 f5 ff ff    	bnd jmp 9020 <_init+0x20>
    9a7f:	90                   	nop
    9a80:	f3 0f 1e fa          	endbr64 
    9a84:	68 a5 00 00 00       	push   $0xa5
    9a89:	f2 e9 91 f5 ff ff    	bnd jmp 9020 <_init+0x20>
    9a8f:	90                   	nop
    9a90:	f3 0f 1e fa          	endbr64 
    9a94:	68 a6 00 00 00       	push   $0xa6
    9a99:	f2 e9 81 f5 ff ff    	bnd jmp 9020 <_init+0x20>
    9a9f:	90                   	nop
    9aa0:	f3 0f 1e fa          	endbr64 
    9aa4:	68 a7 00 00 00       	push   $0xa7
    9aa9:	f2 e9 71 f5 ff ff    	bnd jmp 9020 <_init+0x20>
    9aaf:	90                   	nop
    9ab0:	f3 0f 1e fa          	endbr64 
    9ab4:	68 a8 00 00 00       	push   $0xa8
    9ab9:	f2 e9 61 f5 ff ff    	bnd jmp 9020 <_init+0x20>
    9abf:	90                   	nop
    9ac0:	f3 0f 1e fa          	endbr64 
    9ac4:	68 a9 00 00 00       	push   $0xa9
    9ac9:	f2 e9 51 f5 ff ff    	bnd jmp 9020 <_init+0x20>
    9acf:	90                   	nop
    9ad0:	f3 0f 1e fa          	endbr64 
    9ad4:	68 aa 00 00 00       	push   $0xaa
    9ad9:	f2 e9 41 f5 ff ff    	bnd jmp 9020 <_init+0x20>
    9adf:	90                   	nop
    9ae0:	f3 0f 1e fa          	endbr64 
    9ae4:	68 ab 00 00 00       	push   $0xab
    9ae9:	f2 e9 31 f5 ff ff    	bnd jmp 9020 <_init+0x20>
    9aef:	90                   	nop
    9af0:	f3 0f 1e fa          	endbr64 
    9af4:	68 ac 00 00 00       	push   $0xac
    9af9:	f2 e9 21 f5 ff ff    	bnd jmp 9020 <_init+0x20>
    9aff:	90                   	nop
    9b00:	f3 0f 1e fa          	endbr64 
    9b04:	68 ad 00 00 00       	push   $0xad
    9b09:	f2 e9 11 f5 ff ff    	bnd jmp 9020 <_init+0x20>
    9b0f:	90                   	nop
    9b10:	f3 0f 1e fa          	endbr64 
    9b14:	68 ae 00 00 00       	push   $0xae
    9b19:	f2 e9 01 f5 ff ff    	bnd jmp 9020 <_init+0x20>
    9b1f:	90                   	nop
    9b20:	f3 0f 1e fa          	endbr64 
    9b24:	68 af 00 00 00       	push   $0xaf
    9b29:	f2 e9 f1 f4 ff ff    	bnd jmp 9020 <_init+0x20>
    9b2f:	90                   	nop
    9b30:	f3 0f 1e fa          	endbr64 
    9b34:	68 b0 00 00 00       	push   $0xb0
    9b39:	f2 e9 e1 f4 ff ff    	bnd jmp 9020 <_init+0x20>
    9b3f:	90                   	nop
    9b40:	f3 0f 1e fa          	endbr64 
    9b44:	68 b1 00 00 00       	push   $0xb1
    9b49:	f2 e9 d1 f4 ff ff    	bnd jmp 9020 <_init+0x20>
    9b4f:	90                   	nop
    9b50:	f3 0f 1e fa          	endbr64 
    9b54:	68 b2 00 00 00       	push   $0xb2
    9b59:	f2 e9 c1 f4 ff ff    	bnd jmp 9020 <_init+0x20>
    9b5f:	90                   	nop
    9b60:	f3 0f 1e fa          	endbr64 
    9b64:	68 b3 00 00 00       	push   $0xb3
    9b69:	f2 e9 b1 f4 ff ff    	bnd jmp 9020 <_init+0x20>
    9b6f:	90                   	nop
    9b70:	f3 0f 1e fa          	endbr64 
    9b74:	68 b4 00 00 00       	push   $0xb4
    9b79:	f2 e9 a1 f4 ff ff    	bnd jmp 9020 <_init+0x20>
    9b7f:	90                   	nop
    9b80:	f3 0f 1e fa          	endbr64 
    9b84:	68 b5 00 00 00       	push   $0xb5
    9b89:	f2 e9 91 f4 ff ff    	bnd jmp 9020 <_init+0x20>
    9b8f:	90                   	nop
    9b90:	f3 0f 1e fa          	endbr64 
    9b94:	68 b6 00 00 00       	push   $0xb6
    9b99:	f2 e9 81 f4 ff ff    	bnd jmp 9020 <_init+0x20>
    9b9f:	90                   	nop
    9ba0:	f3 0f 1e fa          	endbr64 
    9ba4:	68 b7 00 00 00       	push   $0xb7
    9ba9:	f2 e9 71 f4 ff ff    	bnd jmp 9020 <_init+0x20>
    9baf:	90                   	nop
    9bb0:	f3 0f 1e fa          	endbr64 
    9bb4:	68 b8 00 00 00       	push   $0xb8
    9bb9:	f2 e9 61 f4 ff ff    	bnd jmp 9020 <_init+0x20>
    9bbf:	90                   	nop

Disassembly of section .plt.got:

0000000000009bc0 <__cxa_finalize@plt>:
    9bc0:	f3 0f 1e fa          	endbr64 
    9bc4:	f2 ff 25 7d 63 05 00 	bnd jmp *0x5637d(%rip)        # 5ff48 <__cxa_finalize@GLIBC_2.2.5>
    9bcb:	0f 1f 44 00 00       	nopl   0x0(%rax,%rax,1)

Disassembly of section .plt.sec:

0000000000009bd0 <__printf_chk@plt>:
    9bd0:	f3 0f 1e fa          	endbr64 
    9bd4:	f2 ff 25 7d 5d 05 00 	bnd jmp *0x55d7d(%rip)        # 5f958 <__printf_chk@GLIBC_2.3.4>
    9bdb:	0f 1f 44 00 00       	nopl   0x0(%rax,%rax,1)

0000000000009be0 <ftell@plt>:
    9be0:	f3 0f 1e fa          	endbr64 
    9be4:	f2 ff 25 75 5d 05 00 	bnd jmp *0x55d75(%rip)        # 5f960 <ftell@GLIBC_2.2.5>
    9beb:	0f 1f 44 00 00       	nopl   0x0(%rax,%rax,1)

0000000000009bf0 <_Znam@plt>:
    9bf0:	f3 0f 1e fa          	endbr64 
    9bf4:	f2 ff 25 6d 5d 05 00 	bnd jmp *0x55d6d(%rip)        # 5f968 <_Znam@GLIBCXX_3.4>
    9bfb:	0f 1f 44 00 00       	nopl   0x0(%rax,%rax,1)

0000000000009c00 <_ZNSo3putEc@plt>:
    9c00:	f3 0f 1e fa          	endbr64 
    9c04:	f2 ff 25 65 5d 05 00 	bnd jmp *0x55d65(%rip)        # 5f970 <_ZNSo3putEc@GLIBCXX_3.4>
    9c0b:	0f 1f 44 00 00       	nopl   0x0(%rax,%rax,1)

0000000000009c10 <__errno_location@plt>:
    9c10:	f3 0f 1e fa          	endbr64 
    9c14:	f2 ff 25 5d 5d 05 00 	bnd jmp *0x55d5d(%rip)        # 5f978 <__errno_location@GLIBC_2.2.5>
    9c1b:	0f 1f 44 00 00       	nopl   0x0(%rax,%rax,1)

0000000000009c20 <_ZNSt6chrono3_V212system_clock3nowEv@plt>:
    9c20:	f3 0f 1e fa          	endbr64 
    9c24:	f2 ff 25 55 5d 05 00 	bnd jmp *0x55d55(%rip)        # 5f980 <_ZNSt6chrono3_V212system_clock3nowEv@GLIBCXX_3.4.19>
    9c2b:	0f 1f 44 00 00       	nopl   0x0(%rax,%rax,1)

0000000000009c30 <_ZNSt8__detail15_List_node_base7_M_hookEPS0_@plt>:
    9c30:	f3 0f 1e fa          	endbr64 
    9c34:	f2 ff 25 4d 5d 05 00 	bnd jmp *0x55d4d(%rip)        # 5f988 <_ZNSt8__detail15_List_node_base7_M_hookEPS0_@GLIBCXX_3.4.15>
    9c3b:	0f 1f 44 00 00       	nopl   0x0(%rax,%rax,1)

0000000000009c40 <isspace@plt>:
    9c40:	f3 0f 1e fa          	endbr64 
    9c44:	f2 ff 25 45 5d 05 00 	bnd jmp *0x55d45(%rip)        # 5f990 <isspace@GLIBC_2.2.5>
    9c4b:	0f 1f 44 00 00       	nopl   0x0(%rax,%rax,1)

0000000000009c50 <_ZSt29_Rb_tree_insert_and_rebalancebPSt18_Rb_tree_node_baseS0_RS_@plt>:
    9c50:	f3 0f 1e fa          	endbr64 
    9c54:	f2 ff 25 3d 5d 05 00 	bnd jmp *0x55d3d(%rip)        # 5f998 <_ZSt29_Rb_tree_insert_and_rebalancebPSt18_Rb_tree_node_baseS0_RS_@GLIBCXX_3.4>
    9c5b:	0f 1f 44 00 00       	nopl   0x0(%rax,%rax,1)

0000000000009c60 <_ZNSaIcED2Ev@plt>:
    9c60:	f3 0f 1e fa          	endbr64 
    9c64:	f2 ff 25 35 5d 05 00 	bnd jmp *0x55d35(%rip)        # 5f9a0 <_ZNSaIcED2Ev@GLIBCXX_3.4>
    9c6b:	0f 1f 44 00 00       	nopl   0x0(%rax,%rax,1)

0000000000009c70 <_ZNSdD2Ev@plt>:
    9c70:	f3 0f 1e fa          	endbr64 
    9c74:	f2 ff 25 2d 5d 05 00 	bnd jmp *0x55d2d(%rip)        # 5f9a8 <_ZNSdD2Ev@GLIBCXX_3.4>
    9c7b:	0f 1f 44 00 00       	nopl   0x0(%rax,%rax,1)

0000000000009c80 <pthread_setspecific@plt>:
    9c80:	f3 0f 1e fa          	endbr64 
    9c84:	f2 ff 25 25 5d 05 00 	bnd jmp *0x55d25(%rip)        # 5f9b0 <pthread_setspecific@GLIBC_2.34>
    9c8b:	0f 1f 44 00 00       	nopl   0x0(%rax,%rax,1)

0000000000009c90 <strstr@plt>:
    9c90:	f3 0f 1e fa          	endbr64 
    9c94:	f2 ff 25 1d 5d 05 00 	bnd jmp *0x55d1d(%rip)        # 5f9b8 <strstr@GLIBC_2.2.5>
    9c9b:	0f 1f 44 00 00       	nopl   0x0(%rax,%rax,1)

0000000000009ca0 <_ZNSt13basic_filebufIcSt11char_traitsIcEE5closeEv@plt>:
    9ca0:	f3 0f 1e fa          	endbr64 
    9ca4:	f2 ff 25 15 5d 05 00 	bnd jmp *0x55d15(%rip)        # 5f9c0 <_ZNSt13basic_filebufIcSt11char_traitsIcEE5closeEv@GLIBCXX_3.4>
    9cab:	0f 1f 44 00 00       	nopl   0x0(%rax,%rax,1)

0000000000009cb0 <isxdigit@plt>:
    9cb0:	f3 0f 1e fa          	endbr64 
    9cb4:	f2 ff 25 0d 5d 05 00 	bnd jmp *0x55d0d(%rip)        # 5f9c8 <isxdigit@GLIBC_2.2.5>
    9cbb:	0f 1f 44 00 00       	nopl   0x0(%rax,%rax,1)

0000000000009cc0 <_ZNSt7__cxx1119basic_ostringstreamIcSt11char_traitsIcESaIcEED1Ev@plt>:
    9cc0:	f3 0f 1e fa          	endbr64 
    9cc4:	f2 ff 25 05 5d 05 00 	bnd jmp *0x55d05(%rip)        # 5f9d0 <_ZNSt7__cxx1119basic_ostringstreamIcSt11char_traitsIcESaIcEED1Ev@GLIBCXX_3.4.21>
    9ccb:	0f 1f 44 00 00       	nopl   0x0(%rax,%rax,1)

0000000000009cd0 <socket@plt>:
    9cd0:	f3 0f 1e fa          	endbr64 
    9cd4:	f2 ff 25 fd 5c 05 00 	bnd jmp *0x55cfd(%rip)        # 5f9d8 <socket@GLIBC_2.2.5>
    9cdb:	0f 1f 44 00 00       	nopl   0x0(%rax,%rax,1)

0000000000009ce0 <_ZNSt14basic_ifstreamIcSt11char_traitsIcEED1Ev@plt>:
    9ce0:	f3 0f 1e fa          	endbr64 
    9ce4:	f2 ff 25 f5 5c 05 00 	bnd jmp *0x55cf5(%rip)        # 5f9e0 <_ZNSt14basic_ifstreamIcSt11char_traitsIcEED1Ev@GLIBCXX_3.4>
    9ceb:	0f 1f 44 00 00       	nopl   0x0(%rax,%rax,1)

0000000000009cf0 <fork@plt>:
    9cf0:	f3 0f 1e fa          	endbr64 
    9cf4:	f2 ff 25 ed 5c 05 00 	bnd jmp *0x55ced(%rip)        # 5f9e8 <fork@GLIBC_2.2.5>
    9cfb:	0f 1f 44 00 00       	nopl   0x0(%rax,%rax,1)

0000000000009d00 <__vfprintf_chk@plt>:
    9d00:	f3 0f 1e fa          	endbr64 
    9d04:	f2 ff 25 e5 5c 05 00 	bnd jmp *0x55ce5(%rip)        # 5f9f0 <__vfprintf_chk@GLIBC_2.3.4>
    9d0b:	0f 1f 44 00 00       	nopl   0x0(%rax,%rax,1)

0000000000009d10 <_ZSt9terminatev@plt>:
    9d10:	f3 0f 1e fa          	endbr64 
    9d14:	f2 ff 25 dd 5c 05 00 	bnd jmp *0x55cdd(%rip)        # 5f9f8 <_ZSt9terminatev@GLIBCXX_3.4>
    9d1b:	0f 1f 44 00 00       	nopl   0x0(%rax,%rax,1)

0000000000009d20 <_ZNKSt7__cxx1112basic_stringIcSt11char_traitsIcESaIcEE7compareEPKc@plt>:
    9d20:	f3 0f 1e fa          	endbr64 
    9d24:	f2 ff 25 d5 5c 05 00 	bnd jmp *0x55cd5(%rip)        # 5fa00 <_ZNKSt7__cxx1112basic_stringIcSt11char_traitsIcESaIcEE7compareEPKc@GLIBCXX_3.4.21>
    9d2b:	0f 1f 44 00 00       	nopl   0x0(%rax,%rax,1)

0000000000009d30 <_ZNSt8ios_baseC2Ev@plt>:
    9d30:	f3 0f 1e fa          	endbr64 
    9d34:	f2 ff 25 cd 5c 05 00 	bnd jmp *0x55ccd(%rip)        # 5fa08 <_ZNSt8ios_baseC2Ev@GLIBCXX_3.4>
    9d3b:	0f 1f 44 00 00       	nopl   0x0(%rax,%rax,1)

0000000000009d40 <_ZNSt7__cxx1112basic_stringIcSt11char_traitsIcESaIcEE9_M_appendEPKcm@plt>:
    9d40:	f3 0f 1e fa          	endbr64 
    9d44:	f2 ff 25 c5 5c 05 00 	bnd jmp *0x55cc5(%rip)        # 5fa10 <_ZNSt7__cxx1112basic_stringIcSt11char_traitsIcESaIcEE9_M_appendEPKcm@GLIBCXX_3.4.21>
    9d4b:	0f 1f 44 00 00       	nopl   0x0(%rax,%rax,1)

0000000000009d50 <mkstemp@plt>:
    9d50:	f3 0f 1e fa          	endbr64 
    9d54:	f2 ff 25 bd 5c 05 00 	bnd jmp *0x55cbd(%rip)        # 5fa18 <mkstemp@GLIBC_2.2.5>
    9d5b:	0f 1f 44 00 00       	nopl   0x0(%rax,%rax,1)

0000000000009d60 <_ZNSt8ios_baseD2Ev@plt>:
    9d60:	f3 0f 1e fa          	endbr64 
    9d64:	f2 ff 25 b5 5c 05 00 	bnd jmp *0x55cb5(%rip)        # 5fa20 <_ZNSt8ios_baseD2Ev@GLIBCXX_3.4>
    9d6b:	0f 1f 44 00 00       	nopl   0x0(%rax,%rax,1)

0000000000009d70 <strerror@plt>:
    9d70:	f3 0f 1e fa          	endbr64 
    9d74:	f2 ff 25 ad 5c 05 00 	bnd jmp *0x55cad(%rip)        # 5fa28 <strerror@GLIBC_2.2.5>
    9d7b:	0f 1f 44 00 00       	nopl   0x0(%rax,%rax,1)

0000000000009d80 <write@plt>:
    9d80:	f3 0f 1e fa          	endbr64 
    9d84:	f2 ff 25 a5 5c 05 00 	bnd jmp *0x55ca5(%rip)        # 5fa30 <write@GLIBC_2.2.5>
    9d8b:	0f 1f 44 00 00       	nopl   0x0(%rax,%rax,1)

0000000000009d90 <_ZSt17__throw_bad_allocv@plt>:
    9d90:	f3 0f 1e fa          	endbr64 
    9d94:	f2 ff 25 9d 5c 05 00 	bnd jmp *0x55c9d(%rip)        # 5fa38 <_ZSt17__throw_bad_allocv@GLIBCXX_3.4>
    9d9b:	0f 1f 44 00 00       	nopl   0x0(%rax,%rax,1)

0000000000009da0 <strchr@plt>:
    9da0:	f3 0f 1e fa          	endbr64 
    9da4:	f2 ff 25 95 5c 05 00 	bnd jmp *0x55c95(%rip)        # 5fa40 <strchr@GLIBC_2.2.5>
    9dab:	0f 1f 44 00 00       	nopl   0x0(%rax,%rax,1)

0000000000009db0 <__cxa_begin_catch@plt>:
    9db0:	f3 0f 1e fa          	endbr64 
    9db4:	f2 ff 25 8d 5c 05 00 	bnd jmp *0x55c8d(%rip)        # 5fa48 <__cxa_begin_catch@CXXABI_1.3>
    9dbb:	0f 1f 44 00 00       	nopl   0x0(%rax,%rax,1)

0000000000009dc0 <strlen@plt>:
    9dc0:	f3 0f 1e fa          	endbr64 
    9dc4:	f2 ff 25 85 5c 05 00 	bnd jmp *0x55c85(%rip)        # 5fa50 <strlen@GLIBC_2.2.5>
    9dcb:	0f 1f 44 00 00       	nopl   0x0(%rax,%rax,1)

0000000000009dd0 <memcmp@plt>:
    9dd0:	f3 0f 1e fa          	endbr64 
    9dd4:	f2 ff 25 7d 5c 05 00 	bnd jmp *0x55c7d(%rip)        # 5fa58 <memcmp@GLIBC_2.2.5>
    9ddb:	0f 1f 44 00 00       	nopl   0x0(%rax,%rax,1)

0000000000009de0 <mkdir@plt>:
    9de0:	f3 0f 1e fa          	endbr64 
    9de4:	f2 ff 25 75 5c 05 00 	bnd jmp *0x55c75(%rip)        # 5fa60 <mkdir@GLIBC_2.2.5>
    9deb:	0f 1f 44 00 00       	nopl   0x0(%rax,%rax,1)

0000000000009df0 <strncmp@plt>:
    9df0:	f3 0f 1e fa          	endbr64 
    9df4:	f2 ff 25 6d 5c 05 00 	bnd jmp *0x55c6d(%rip)        # 5fa68 <strncmp@GLIBC_2.2.5>
    9dfb:	0f 1f 44 00 00       	nopl   0x0(%rax,%rax,1)

0000000000009e00 <__cxa_allocate_exception@plt>:
    9e00:	f3 0f 1e fa          	endbr64 
    9e04:	f2 ff 25 65 5c 05 00 	bnd jmp *0x55c65(%rip)        # 5fa70 <__cxa_allocate_exception@CXXABI_1.3>
    9e0b:	0f 1f 44 00 00       	nopl   0x0(%rax,%rax,1)

0000000000009e10 <_ZNSt8__detail15_List_node_base11_M_transferEPS0_S1_@plt>:
    9e10:	f3 0f 1e fa          	endbr64 
    9e14:	f2 ff 25 5d 5c 05 00 	bnd jmp *0x55c5d(%rip)        # 5fa78 <_ZNSt8__detail15_List_node_base11_M_transferEPS0_S1_@GLIBCXX_3.4.15>
    9e1b:	0f 1f 44 00 00       	nopl   0x0(%rax,%rax,1)

0000000000009e20 <getcwd@plt>:
    9e20:	f3 0f 1e fa          	endbr64 
    9e24:	f2 ff 25 55 5c 05 00 	bnd jmp *0x55c55(%rip)        # 5fa80 <getcwd@GLIBC_2.2.5>
    9e2b:	0f 1f 44 00 00       	nopl   0x0(%rax,%rax,1)

0000000000009e30 <localtime_r@plt>:
    9e30:	f3 0f 1e fa          	endbr64 
    9e34:	f2 ff 25 4d 5c 05 00 	bnd jmp *0x55c4d(%rip)        # 5fa88 <localtime_r@GLIBC_2.2.5>
    9e3b:	0f 1f 44 00 00       	nopl   0x0(%rax,%rax,1)

0000000000009e40 <_ZSt20__throw_length_errorPKc@plt>:
    9e40:	f3 0f 1e fa          	endbr64 
    9e44:	f2 ff 25 45 5c 05 00 	bnd jmp *0x55c45(%rip)        # 5fa90 <_ZSt20__throw_length_errorPKc@GLIBCXX_3.4>
    9e4b:	0f 1f 44 00 00       	nopl   0x0(%rax,%rax,1)

0000000000009e50 <_ZNSt7__cxx1112basic_stringIcSt11char_traitsIcESaIcEE9_M_assignERKS4_@plt>:
    9e50:	f3 0f 1e fa          	endbr64 
    9e54:	f2 ff 25 3d 5c 05 00 	bnd jmp *0x55c3d(%rip)        # 5fa98 <_ZNSt7__cxx1112basic_stringIcSt11char_traitsIcESaIcEE9_M_assignERKS4_@GLIBCXX_3.4.21>
    9e5b:	0f 1f 44 00 00       	nopl   0x0(%rax,%rax,1)

0000000000009e60 <_ZNSi10_M_extractImEERSiRT_@plt>:
    9e60:	f3 0f 1e fa          	endbr64 
    9e64:	f2 ff 25 35 5c 05 00 	bnd jmp *0x55c35(%rip)        # 5faa0 <_ZNSi10_M_extractImEERSiRT_@GLIBCXX_3.4.9>
    9e6b:	0f 1f 44 00 00       	nopl   0x0(%rax,%rax,1)

0000000000009e70 <memset@plt>:
    9e70:	f3 0f 1e fa          	endbr64 
    9e74:	f2 ff 25 2d 5c 05 00 	bnd jmp *0x55c2d(%rip)        # 5faa8 <memset@GLIBC_2.2.5>
    9e7b:	0f 1f 44 00 00       	nopl   0x0(%rax,%rax,1)

0000000000009e80 <abort@plt>:
    9e80:	f3 0f 1e fa          	endbr64 
    9e84:	f2 ff 25 25 5c 05 00 	bnd jmp *0x55c25(%rip)        # 5fab0 <abort@GLIBC_2.2.5>
    9e8b:	0f 1f 44 00 00       	nopl   0x0(%rax,%rax,1)

0000000000009e90 <munmap@plt>:
    9e90:	f3 0f 1e fa          	endbr64 
    9e94:	f2 ff 25 1d 5c 05 00 	bnd jmp *0x55c1d(%rip)        # 5fab8 <munmap@GLIBC_2.2.5>
    9e9b:	0f 1f 44 00 00       	nopl   0x0(%rax,%rax,1)

0000000000009ea0 <_ZNSaIcEC1ERKS_@plt>:
    9ea0:	f3 0f 1e fa          	endbr64 
    9ea4:	f2 ff 25 15 5c 05 00 	bnd jmp *0x55c15(%rip)        # 5fac0 <_ZNSaIcEC1ERKS_@GLIBCXX_3.4>
    9eab:	0f 1f 44 00 00       	nopl   0x0(%rax,%rax,1)

0000000000009eb0 <fcntl@plt>:
    9eb0:	f3 0f 1e fa          	endbr64 
    9eb4:	f2 ff 25 0d 5c 05 00 	bnd jmp *0x55c0d(%rip)        # 5fac8 <fcntl@GLIBC_2.2.5>
    9ebb:	0f 1f 44 00 00       	nopl   0x0(%rax,%rax,1)

0000000000009ec0 <__snprintf_chk@plt>:
    9ec0:	f3 0f 1e fa          	endbr64 
    9ec4:	f2 ff 25 05 5c 05 00 	bnd jmp *0x55c05(%rip)        # 5fad0 <__snprintf_chk@GLIBC_2.3.4>
    9ecb:	0f 1f 44 00 00       	nopl   0x0(%rax,%rax,1)

0000000000009ed0 <__cxa_guard_abort@plt>:
    9ed0:	f3 0f 1e fa          	endbr64 
    9ed4:	f2 ff 25 fd 5b 05 00 	bnd jmp *0x55bfd(%rip)        # 5fad8 <__cxa_guard_abort@CXXABI_1.3>
    9edb:	0f 1f 44 00 00       	nopl   0x0(%rax,%rax,1)

0000000000009ee0 <__cxa_guard_release@plt>:
    9ee0:	f3 0f 1e fa          	endbr64 
    9ee4:	f2 ff 25 f5 5b 05 00 	bnd jmp *0x55bf5(%rip)        # 5fae0 <__cxa_guard_release@CXXABI_1.3>
    9eeb:	0f 1f 44 00 00       	nopl   0x0(%rax,%rax,1)

0000000000009ef0 <_ZNSo9_M_insertImEERSoT_@plt>:
    9ef0:	f3 0f 1e fa          	endbr64 
    9ef4:	f2 ff 25 ed 5b 05 00 	bnd jmp *0x55bed(%rip)        # 5fae8 <_ZNSo9_M_insertImEERSoT_@GLIBCXX_3.4.9>
    9efb:	0f 1f 44 00 00       	nopl   0x0(%rax,%rax,1)

0000000000009f00 <_ZNSo5flushEv@plt>:
    9f00:	f3 0f 1e fa          	endbr64 
    9f04:	f2 ff 25 e5 5b 05 00 	bnd jmp *0x55be5(%rip)        # 5faf0 <_ZNSo5flushEv@GLIBCXX_3.4>
    9f0b:	0f 1f 44 00 00       	nopl   0x0(%rax,%rax,1)

0000000000009f10 <_ZSt18_Rb_tree_incrementPSt18_Rb_tree_node_base@plt>:
    9f10:	f3 0f 1e fa          	endbr64 
    9f14:	f2 ff 25 dd 5b 05 00 	bnd jmp *0x55bdd(%rip)        # 5faf8 <_ZSt18_Rb_tree_incrementPSt18_Rb_tree_node_base@GLIBCXX_3.4>
    9f1b:	0f 1f 44 00 00       	nopl   0x0(%rax,%rax,1)

0000000000009f20 <_ZNSt7__cxx1118basic_stringstreamIcSt11char_traitsIcESaIcEEC1Ev@plt>:
    9f20:	f3 0f 1e fa          	endbr64 
    9f24:	f2 ff 25 d5 5b 05 00 	bnd jmp *0x55bd5(%rip)        # 5fb00 <_ZNSt7__cxx1118basic_stringstreamIcSt11char_traitsIcESaIcEEC1Ev@GLIBCXX_3.4.26>
    9f2b:	0f 1f 44 00 00       	nopl   0x0(%rax,%rax,1)

0000000000009f30 <_ZSt19__throw_logic_errorPKc@plt>:
    9f30:	f3 0f 1e fa          	endbr64 
    9f34:	f2 ff 25 cd 5b 05 00 	bnd jmp *0x55bcd(%rip)        # 5fb08 <_ZSt19__throw_logic_errorPKc@GLIBCXX_3.4>
    9f3b:	0f 1f 44 00 00       	nopl   0x0(%rax,%rax,1)

0000000000009f40 <_ZNSt7__cxx1112basic_stringIcSt11char_traitsIcESaIcEE4swapERS4_@plt>:
    9f40:	f3 0f 1e fa          	endbr64 
    9f44:	f2 ff 25 c5 5b 05 00 	bnd jmp *0x55bc5(%rip)        # 5fb10 <_ZNSt7__cxx1112basic_stringIcSt11char_traitsIcESaIcEE4swapERS4_@GLIBCXX_3.4.21>
    9f4b:	0f 1f 44 00 00       	nopl   0x0(%rax,%rax,1)

0000000000009f50 <__cxa_free_exception@plt>:
    9f50:	f3 0f 1e fa          	endbr64 
    9f54:	f2 ff 25 bd 5b 05 00 	bnd jmp *0x55bbd(%rip)        # 5fb18 <__cxa_free_exception@CXXABI_1.3>
    9f5b:	0f 1f 44 00 00       	nopl   0x0(%rax,%rax,1)

0000000000009f60 <nextafter@plt>:
    9f60:	f3 0f 1e fa          	endbr64 
    9f64:	f2 ff 25 b5 5b 05 00 	bnd jmp *0x55bb5(%rip)        # 5fb20 <nextafter@GLIBC_2.2.5>
    9f6b:	0f 1f 44 00 00       	nopl   0x0(%rax,%rax,1)

0000000000009f70 <localtime@plt>:
    9f70:	f3 0f 1e fa          	endbr64 
    9f74:	f2 ff 25 ad 5b 05 00 	bnd jmp *0x55bad(%rip)        # 5fb28 <localtime@GLIBC_2.2.5>
    9f7b:	0f 1f 44 00 00       	nopl   0x0(%rax,%rax,1)

0000000000009f80 <_ZNSt7__cxx1118basic_stringstreamIcSt11char_traitsIcESaIcEED1Ev@plt>:
    9f80:	f3 0f 1e fa          	endbr64 
    9f84:	f2 ff 25 a5 5b 05 00 	bnd jmp *0x55ba5(%rip)        # 5fb30 <_ZNSt7__cxx1118basic_stringstreamIcSt11char_traitsIcESaIcEED1Ev@GLIBCXX_3.4.21>
    9f8b:	0f 1f 44 00 00       	nopl   0x0(%rax,%rax,1)

0000000000009f90 <sleep@plt>:
    9f90:	f3 0f 1e fa          	endbr64 
    9f94:	f2 ff 25 9d 5b 05 00 	bnd jmp *0x55b9d(%rip)        # 5fb38 <sleep@GLIBC_2.2.5>
    9f9b:	0f 1f 44 00 00       	nopl   0x0(%rax,%rax,1)

0000000000009fa0 <pthread_mutex_unlock@plt>:
    9fa0:	f3 0f 1e fa          	endbr64 
    9fa4:	f2 ff 25 95 5b 05 00 	bnd jmp *0x55b95(%rip)        # 5fb40 <pthread_mutex_unlock@GLIBC_2.2.5>
    9fab:	0f 1f 44 00 00       	nopl   0x0(%rax,%rax,1)

0000000000009fb0 <_ZNSo9_M_insertIPKvEERSoT_@plt>:
    9fb0:	f3 0f 1e fa          	endbr64 
    9fb4:	f2 ff 25 8d 5b 05 00 	bnd jmp *0x55b8d(%rip)        # 5fb48 <_ZNSo9_M_insertIPKvEERSoT_@GLIBCXX_3.4.9>
    9fbb:	0f 1f 44 00 00       	nopl   0x0(%rax,%rax,1)

0000000000009fc0 <_ZSt28__throw_bad_array_new_lengthv@plt>:
    9fc0:	f3 0f 1e fa          	endbr64 
    9fc4:	f2 ff 25 85 5b 05 00 	bnd jmp *0x55b85(%rip)        # 5fb50 <_ZSt28__throw_bad_array_new_lengthv@GLIBCXX_3.4.29>
    9fcb:	0f 1f 44 00 00       	nopl   0x0(%rax,%rax,1)

0000000000009fd0 <waitpid@plt>:
    9fd0:	f3 0f 1e fa          	endbr64 
    9fd4:	f2 ff 25 7d 5b 05 00 	bnd jmp *0x55b7d(%rip)        # 5fb58 <waitpid@GLIBC_2.2.5>
    9fdb:	0f 1f 44 00 00       	nopl   0x0(%rax,%rax,1)

0000000000009fe0 <strftime@plt>:
    9fe0:	f3 0f 1e fa          	endbr64 
    9fe4:	f2 ff 25 75 5b 05 00 	bnd jmp *0x55b75(%rip)        # 5fb60 <strftime@GLIBC_2.2.5>
    9feb:	0f 1f 44 00 00       	nopl   0x0(%rax,%rax,1)

0000000000009ff0 <memcpy@plt>:
    9ff0:	f3 0f 1e fa          	endbr64 
    9ff4:	f2 ff 25 6d 5b 05 00 	bnd jmp *0x55b6d(%rip)        # 5fb68 <memcpy@GLIBC_2.14>
    9ffb:	0f 1f 44 00 00       	nopl   0x0(%rax,%rax,1)

000000000000a000 <connect@plt>:
    a000:	f3 0f 1e fa          	endbr64 
    a004:	f2 ff 25 65 5b 05 00 	bnd jmp *0x55b65(%rip)        # 5fb70 <connect@GLIBC_2.2.5>
    a00b:	0f 1f 44 00 00       	nopl   0x0(%rax,%rax,1)

000000000000a010 <wcslen@plt>:
    a010:	f3 0f 1e fa          	endbr64 
    a014:	f2 ff 25 5d 5b 05 00 	bnd jmp *0x55b5d(%rip)        # 5fb78 <wcslen@GLIBC_2.2.5>
    a01b:	0f 1f 44 00 00       	nopl   0x0(%rax,%rax,1)

000000000000a020 <_ZNSt7__cxx1112basic_stringIwSt11char_traitsIwESaIwEE10_M_disposeEv@plt>:
    a020:	f3 0f 1e fa          	endbr64 
    a024:	f2 ff 25 55 5b 05 00 	bnd jmp *0x55b55(%rip)        # 5fb80 <_ZNSt7__cxx1112basic_stringIwSt11char_traitsIwESaIwEE10_M_disposeEv@GLIBCXX_3.4.21>
    a02b:	0f 1f 44 00 00       	nopl   0x0(%rax,%rax,1)

000000000000a030 <__cxa_atexit@plt>:
    a030:	f3 0f 1e fa          	endbr64 
    a034:	f2 ff 25 4d 5b 05 00 	bnd jmp *0x55b4d(%rip)        # 5fb88 <__cxa_atexit@GLIBC_2.2.5>
    a03b:	0f 1f 44 00 00       	nopl   0x0(%rax,%rax,1)

000000000000a040 <_ZStlsIcSt11char_traitsIcESaIcEERSt13basic_ostreamIT_T0_ES7_RKNSt7__cxx1112basic_stringIS4_S5_T1_EE@plt>:
    a040:	f3 0f 1e fa          	endbr64 
    a044:	f2 ff 25 45 5b 05 00 	bnd jmp *0x55b45(%rip)        # 5fb90 <_ZStlsIcSt11char_traitsIcESaIcEERSt13basic_ostreamIT_T0_ES7_RKNSt7__cxx1112basic_stringIS4_S5_T1_EE@GLIBCXX_3.4.21>
    a04b:	0f 1f 44 00 00       	nopl   0x0(%rax,%rax,1)

000000000000a050 <pthread_self@plt>:
    a050:	f3 0f 1e fa          	endbr64 
    a054:	f2 ff 25 3d 5b 05 00 	bnd jmp *0x55b3d(%rip)        # 5fb98 <pthread_self@GLIBC_2.2.5>
    a05b:	0f 1f 44 00 00       	nopl   0x0(%rax,%rax,1)

000000000000a060 <_ZNSt13basic_filebufIcSt11char_traitsIcEE4openEPKcSt13_Ios_Openmode@plt>:
    a060:	f3 0f 1e fa          	endbr64 
    a064:	f2 ff 25 35 5b 05 00 	bnd jmp *0x55b35(%rip)        # 5fba0 <_ZNSt13basic_filebufIcSt11char_traitsIcEE4openEPKcSt13_Ios_Openmode@GLIBCXX_3.4>
    a06b:	0f 1f 44 00 00       	nopl   0x0(%rax,%rax,1)

000000000000a070 <stat@plt>:
    a070:	f3 0f 1e fa          	endbr64 
    a074:	f2 ff 25 2d 5b 05 00 	bnd jmp *0x55b2d(%rip)        # 5fba8 <stat@GLIBC_2.33>
    a07b:	0f 1f 44 00 00       	nopl   0x0(%rax,%rax,1)

000000000000a080 <execv@plt>:
    a080:	f3 0f 1e fa          	endbr64 
    a084:	f2 ff 25 25 5b 05 00 	bnd jmp *0x55b25(%rip)        # 5fbb0 <execv@GLIBC_2.2.5>
    a08b:	0f 1f 44 00 00       	nopl   0x0(%rax,%rax,1)

000000000000a090 <time@plt>:
    a090:	f3 0f 1e fa          	endbr64 
    a094:	f2 ff 25 1d 5b 05 00 	bnd jmp *0x55b1d(%rip)        # 5fbb8 <time@GLIBC_2.2.5>
    a09b:	0f 1f 44 00 00       	nopl   0x0(%rax,%rax,1)

000000000000a0a0 <dup2@plt>:
    a0a0:	f3 0f 1e fa          	endbr64 
    a0a4:	f2 ff 25 15 5b 05 00 	bnd jmp *0x55b15(%rip)        # 5fbc0 <dup2@GLIBC_2.2.5>
    a0ab:	0f 1f 44 00 00       	nopl   0x0(%rax,%rax,1)

000000000000a0b0 <_ZdlPv@plt>:
    a0b0:	f3 0f 1e fa          	endbr64 
    a0b4:	f2 ff 25 0d 5b 05 00 	bnd jmp *0x55b0d(%rip)        # 5fbc8 <_ZdlPv@GLIBCXX_3.4>
    a0bb:	0f 1f 44 00 00       	nopl   0x0(%rax,%rax,1)

000000000000a0c0 <_ZNSo9_M_insertIlEERSoT_@plt>:
    a0c0:	f3 0f 1e fa          	endbr64 
    a0c4:	f2 ff 25 05 5b 05 00 	bnd jmp *0x55b05(%rip)        # 5fbd0 <_ZNSo9_M_insertIlEERSoT_@GLIBCXX_3.4.9>
    a0cb:	0f 1f 44 00 00       	nopl   0x0(%rax,%rax,1)

000000000000a0d0 <srand@plt>:
    a0d0:	f3 0f 1e fa          	endbr64 
    a0d4:	f2 ff 25 fd 5a 05 00 	bnd jmp *0x55afd(%rip)        # 5fbd8 <srand@GLIBC_2.2.5>
    a0db:	0f 1f 44 00 00       	nopl   0x0(%rax,%rax,1)

000000000000a0e0 <_ZStlsISt11char_traitsIcEERSt13basic_ostreamIcT_ES5_PKc@plt>:
    a0e0:	f3 0f 1e fa          	endbr64 
    a0e4:	f2 ff 25 f5 5a 05 00 	bnd jmp *0x55af5(%rip)        # 5fbe0 <_ZStlsISt11char_traitsIcEERSt13basic_ostreamIcT_ES5_PKc@GLIBCXX_3.4>
    a0eb:	0f 1f 44 00 00       	nopl   0x0(%rax,%rax,1)

000000000000a0f0 <fclose@plt>:
    a0f0:	f3 0f 1e fa          	endbr64 
    a0f4:	f2 ff 25 ed 5a 05 00 	bnd jmp *0x55aed(%rip)        # 5fbe8 <fclose@GLIBC_2.2.5>
    a0fb:	0f 1f 44 00 00       	nopl   0x0(%rax,%rax,1)

000000000000a100 <_Znwm@plt>:
    a100:	f3 0f 1e fa          	endbr64 
    a104:	f2 ff 25 e5 5a 05 00 	bnd jmp *0x55ae5(%rip)        # 5fbf0 <_Znwm@GLIBCXX_3.4>
    a10b:	0f 1f 44 00 00       	nopl   0x0(%rax,%rax,1)

000000000000a110 <regfree@plt>:
    a110:	f3 0f 1e fa          	endbr64 
    a114:	f2 ff 25 dd 5a 05 00 	bnd jmp *0x55add(%rip)        # 5fbf8 <regfree@GLIBC_2.2.5>
    a11b:	0f 1f 44 00 00       	nopl   0x0(%rax,%rax,1)

000000000000a120 <_ZNSt7__cxx1112basic_stringIwSt11char_traitsIwESaIwEE9_M_createERmm@plt>:
    a120:	f3 0f 1e fa          	endbr64 
    a124:	f2 ff 25 d5 5a 05 00 	bnd jmp *0x55ad5(%rip)        # 5fc00 <_ZNSt7__cxx1112basic_stringIwSt11char_traitsIwESaIwEE9_M_createERmm@GLIBCXX_3.4.21>
    a12b:	0f 1f 44 00 00       	nopl   0x0(%rax,%rax,1)

000000000000a130 <_ZdlPvm@plt>:
    a130:	f3 0f 1e fa          	endbr64 
    a134:	f2 ff 25 cd 5a 05 00 	bnd jmp *0x55acd(%rip)        # 5fc08 <_ZdlPvm@CXXABI_1.3.9>
    a13b:	0f 1f 44 00 00       	nopl   0x0(%rax,%rax,1)

000000000000a140 <_ZNSt13basic_filebufIcSt11char_traitsIcEEC1Ev@plt>:
    a140:	f3 0f 1e fa          	endbr64 
    a144:	f2 ff 25 c5 5a 05 00 	bnd jmp *0x55ac5(%rip)        # 5fc10 <_ZNSt13basic_filebufIcSt11char_traitsIcEEC1Ev@GLIBCXX_3.4>
    a14b:	0f 1f 44 00 00       	nopl   0x0(%rax,%rax,1)

000000000000a150 <_ZSt18_Rb_tree_decrementPSt18_Rb_tree_node_base@plt>:
    a150:	f3 0f 1e fa          	endbr64 
    a154:	f2 ff 25 bd 5a 05 00 	bnd jmp *0x55abd(%rip)        # 5fc18 <_ZSt18_Rb_tree_decrementPSt18_Rb_tree_node_base@GLIBCXX_3.4>
    a15b:	0f 1f 44 00 00       	nopl   0x0(%rax,%rax,1)

000000000000a160 <_ZNSolsEPFRSoS_E@plt>:
    a160:	f3 0f 1e fa          	endbr64 
    a164:	f2 ff 25 b5 5a 05 00 	bnd jmp *0x55ab5(%rip)        # 5fc20 <_ZNSolsEPFRSoS_E@GLIBCXX_3.4>
    a16b:	0f 1f 44 00 00       	nopl   0x0(%rax,%rax,1)

000000000000a170 <fileno@plt>:
    a170:	f3 0f 1e fa          	endbr64 
    a174:	f2 ff 25 ad 5a 05 00 	bnd jmp *0x55aad(%rip)        # 5fc28 <fileno@GLIBC_2.2.5>
    a17b:	0f 1f 44 00 00       	nopl   0x0(%rax,%rax,1)

000000000000a180 <fdopen@plt>:
    a180:	f3 0f 1e fa          	endbr64 
    a184:	f2 ff 25 a5 5a 05 00 	bnd jmp *0x55aa5(%rip)        # 5fc30 <fdopen@GLIBC_2.2.5>
    a18b:	0f 1f 44 00 00       	nopl   0x0(%rax,%rax,1)

000000000000a190 <_ZNSaIcED1Ev@plt>:
    a190:	f3 0f 1e fa          	endbr64 
    a194:	f2 ff 25 9d 5a 05 00 	bnd jmp *0x55a9d(%rip)        # 5fc38 <_ZNSaIcED1Ev@GLIBCXX_3.4>
    a19b:	0f 1f 44 00 00       	nopl   0x0(%rax,%rax,1)

000000000000a1a0 <strcasecmp@plt>:
    a1a0:	f3 0f 1e fa          	endbr64 
    a1a4:	f2 ff 25 95 5a 05 00 	bnd jmp *0x55a95(%rip)        # 5fc40 <strcasecmp@GLIBC_2.2.5>
    a1ab:	0f 1f 44 00 00       	nopl   0x0(%rax,%rax,1)

000000000000a1b0 <__cxa_bad_typeid@plt>:
    a1b0:	f3 0f 1e fa          	endbr64 
    a1b4:	f2 ff 25 8d 5a 05 00 	bnd jmp *0x55a8d(%rip)        # 5fc48 <__cxa_bad_typeid@CXXABI_1.3>
    a1bb:	0f 1f 44 00 00       	nopl   0x0(%rax,%rax,1)

000000000000a1c0 <strrchr@plt>:
    a1c0:	f3 0f 1e fa          	endbr64 
    a1c4:	f2 ff 25 85 5a 05 00 	bnd jmp *0x55a85(%rip)        # 5fc50 <strrchr@GLIBC_2.2.5>
    a1cb:	0f 1f 44 00 00       	nopl   0x0(%rax,%rax,1)

000000000000a1d0 <fseek@plt>:
    a1d0:	f3 0f 1e fa          	endbr64 
    a1d4:	f2 ff 25 7d 5a 05 00 	bnd jmp *0x55a7d(%rip)        # 5fc58 <fseek@GLIBC_2.2.5>
    a1db:	0f 1f 44 00 00       	nopl   0x0(%rax,%rax,1)

000000000000a1e0 <_ZNSt13runtime_errorD2Ev@plt>:
    a1e0:	f3 0f 1e fa          	endbr64 
    a1e4:	f2 ff 25 75 5a 05 00 	bnd jmp *0x55a75(%rip)        # 5fc60 <_ZNSt13runtime_errorD2Ev@GLIBCXX_3.4>
    a1eb:	0f 1f 44 00 00       	nopl   0x0(%rax,%rax,1)

000000000000a1f0 <__stack_chk_fail@plt>:
    a1f0:	f3 0f 1e fa          	endbr64 
    a1f4:	f2 ff 25 6d 5a 05 00 	bnd jmp *0x55a6d(%rip)        # 5fc68 <__stack_chk_fail@GLIBC_2.4>
    a1fb:	0f 1f 44 00 00       	nopl   0x0(%rax,%rax,1)

000000000000a200 <fputs@plt>:
    a200:	f3 0f 1e fa          	endbr64 
    a204:	f2 ff 25 65 5a 05 00 	bnd jmp *0x55a65(%rip)        # 5fc70 <fputs@GLIBC_2.2.5>
    a20b:	0f 1f 44 00 00       	nopl   0x0(%rax,%rax,1)

000000000000a210 <__dynamic_cast@plt>:
    a210:	f3 0f 1e fa          	endbr64 
    a214:	f2 ff 25 5d 5a 05 00 	bnd jmp *0x55a5d(%rip)        # 5fc78 <__dynamic_cast@CXXABI_1.3>
    a21b:	0f 1f 44 00 00       	nopl   0x0(%rax,%rax,1)

000000000000a220 <_ZSt16__ostream_insertIcSt11char_traitsIcEERSt13basic_ostreamIT_T0_ES6_PKS3_l@plt>:
    a220:	f3 0f 1e fa          	endbr64 
    a224:	f2 ff 25 55 5a 05 00 	bnd jmp *0x55a55(%rip)        # 5fc80 <_ZSt16__ostream_insertIcSt11char_traitsIcEERSt13basic_ostreamIT_T0_ES6_PKS3_l@GLIBCXX_3.4.9>
    a22b:	0f 1f 44 00 00       	nopl   0x0(%rax,%rax,1)

000000000000a230 <_ZNKSt5ctypeIcE13_M_widen_initEv@plt>:
    a230:	f3 0f 1e fa          	endbr64 
    a234:	f2 ff 25 4d 5a 05 00 	bnd jmp *0x55a4d(%rip)        # 5fc88 <_ZNKSt5ctypeIcE13_M_widen_initEv@GLIBCXX_3.4.11>
    a23b:	0f 1f 44 00 00       	nopl   0x0(%rax,%rax,1)

000000000000a240 <regcomp@plt>:
    a240:	f3 0f 1e fa          	endbr64 
    a244:	f2 ff 25 45 5a 05 00 	bnd jmp *0x55a45(%rip)        # 5fc90 <regcomp@GLIBC_2.2.5>
    a24b:	0f 1f 44 00 00       	nopl   0x0(%rax,%rax,1)

000000000000a250 <_ZSt18_Rb_tree_incrementPKSt18_Rb_tree_node_base@plt>:
    a250:	f3 0f 1e fa          	endbr64 
    a254:	f2 ff 25 3d 5a 05 00 	bnd jmp *0x55a3d(%rip)        # 5fc98 <_ZSt18_Rb_tree_incrementPKSt18_Rb_tree_node_base@GLIBCXX_3.4>
    a25b:	0f 1f 44 00 00       	nopl   0x0(%rax,%rax,1)

000000000000a260 <_ZNSt7__cxx1112basic_stringIcSt11char_traitsIcESaIcEE12_M_constructEmc@plt>:
    a260:	f3 0f 1e fa          	endbr64 
    a264:	f2 ff 25 35 5a 05 00 	bnd jmp *0x55a35(%rip)        # 5fca0 <_ZNSt7__cxx1112basic_stringIcSt11char_traitsIcESaIcEE12_M_constructEmc@GLIBCXX_3.4.21>
    a26b:	0f 1f 44 00 00       	nopl   0x0(%rax,%rax,1)

000000000000a270 <pthread_mutex_destroy@plt>:
    a270:	f3 0f 1e fa          	endbr64 
    a274:	f2 ff 25 2d 5a 05 00 	bnd jmp *0x55a2d(%rip)        # 5fca8 <pthread_mutex_destroy@GLIBC_2.2.5>
    a27b:	0f 1f 44 00 00       	nopl   0x0(%rax,%rax,1)

000000000000a280 <fflush@plt>:
    a280:	f3 0f 1e fa          	endbr64 
    a284:	f2 ff 25 25 5a 05 00 	bnd jmp *0x55a25(%rip)        # 5fcb0 <fflush@GLIBC_2.2.5>
    a28b:	0f 1f 44 00 00       	nopl   0x0(%rax,%rax,1)

000000000000a290 <fopen@plt>:
    a290:	f3 0f 1e fa          	endbr64 
    a294:	f2 ff 25 1d 5a 05 00 	bnd jmp *0x55a1d(%rip)        # 5fcb8 <fopen@GLIBC_2.2.5>
    a29b:	0f 1f 44 00 00       	nopl   0x0(%rax,%rax,1)

000000000000a2a0 <pthread_key_delete@plt>:
    a2a0:	f3 0f 1e fa          	endbr64 
    a2a4:	f2 ff 25 15 5a 05 00 	bnd jmp *0x55a15(%rip)        # 5fcc0 <pthread_key_delete@GLIBC_2.34>
    a2ab:	0f 1f 44 00 00       	nopl   0x0(%rax,%rax,1)

000000000000a2b0 <_ZNSt7__cxx1112basic_stringIcSt11char_traitsIcESaIcEE8_M_eraseEmm@plt>:
    a2b0:	f3 0f 1e fa          	endbr64 
    a2b4:	f2 ff 25 0d 5a 05 00 	bnd jmp *0x55a0d(%rip)        # 5fcc8 <_ZNSt7__cxx1112basic_stringIcSt11char_traitsIcESaIcEE8_M_eraseEmm@GLIBCXX_3.4.21>
    a2bb:	0f 1f 44 00 00       	nopl   0x0(%rax,%rax,1)

000000000000a2c0 <wcsstr@plt>:
    a2c0:	f3 0f 1e fa          	endbr64 
    a2c4:	f2 ff 25 05 5a 05 00 	bnd jmp *0x55a05(%rip)        # 5fcd0 <wcsstr@GLIBC_2.2.5>
    a2cb:	0f 1f 44 00 00       	nopl   0x0(%rax,%rax,1)

000000000000a2d0 <free@plt>:
    a2d0:	f3 0f 1e fa          	endbr64 
    a2d4:	f2 ff 25 fd 59 05 00 	bnd jmp *0x559fd(%rip)        # 5fcd8 <free@GLIBC_2.2.5>
    a2db:	0f 1f 44 00 00       	nopl   0x0(%rax,%rax,1)

000000000000a2e0 <exit@plt>:
    a2e0:	f3 0f 1e fa          	endbr64 
    a2e4:	f2 ff 25 f5 59 05 00 	bnd jmp *0x559f5(%rip)        # 5fce0 <exit@GLIBC_2.2.5>
    a2eb:	0f 1f 44 00 00       	nopl   0x0(%rax,%rax,1)

000000000000a2f0 <getenv@plt>:
    a2f0:	f3 0f 1e fa          	endbr64 
    a2f4:	f2 ff 25 ed 59 05 00 	bnd jmp *0x559ed(%rip)        # 5fce8 <getenv@GLIBC_2.2.5>
    a2fb:	0f 1f 44 00 00       	nopl   0x0(%rax,%rax,1)

000000000000a300 <regexec@plt>:
    a300:	f3 0f 1e fa          	endbr64 
    a304:	f2 ff 25 e5 59 05 00 	bnd jmp *0x559e5(%rip)        # 5fcf0 <regexec@GLIBC_2.3.4>
    a30b:	0f 1f 44 00 00       	nopl   0x0(%rax,%rax,1)

000000000000a310 <fputc@plt>:
    a310:	f3 0f 1e fa          	endbr64 
    a314:	f2 ff 25 dd 59 05 00 	bnd jmp *0x559dd(%rip)        # 5fcf8 <fputc@GLIBC_2.2.5>
    a31b:	0f 1f 44 00 00       	nopl   0x0(%rax,%rax,1)

000000000000a320 <sigemptyset@plt>:
    a320:	f3 0f 1e fa          	endbr64 
    a324:	f2 ff 25 d5 59 05 00 	bnd jmp *0x559d5(%rip)        # 5fd00 <sigemptyset@GLIBC_2.2.5>
    a32b:	0f 1f 44 00 00       	nopl   0x0(%rax,%rax,1)

000000000000a330 <sigaction@plt>:
    a330:	f3 0f 1e fa          	endbr64 
    a334:	f2 ff 25 cd 59 05 00 	bnd jmp *0x559cd(%rip)        # 5fd08 <sigaction@GLIBC_2.2.5>
    a33b:	0f 1f 44 00 00       	nopl   0x0(%rax,%rax,1)

000000000000a340 <getaddrinfo@plt>:
    a340:	f3 0f 1e fa          	endbr64 
    a344:	f2 ff 25 c5 59 05 00 	bnd jmp *0x559c5(%rip)        # 5fd10 <getaddrinfo@GLIBC_2.2.5>
    a34b:	0f 1f 44 00 00       	nopl   0x0(%rax,%rax,1)

000000000000a350 <wcscmp@plt>:
    a350:	f3 0f 1e fa          	endbr64 
    a354:	f2 ff 25 bd 59 05 00 	bnd jmp *0x559bd(%rip)        # 5fd18 <wcscmp@GLIBC_2.2.5>
    a35b:	0f 1f 44 00 00       	nopl   0x0(%rax,%rax,1)

000000000000a360 <_ZSt16__throw_bad_castv@plt>:
    a360:	f3 0f 1e fa          	endbr64 
    a364:	f2 ff 25 b5 59 05 00 	bnd jmp *0x559b5(%rip)        # 5fd20 <_ZSt16__throw_bad_castv@GLIBCXX_3.4>
    a36b:	0f 1f 44 00 00       	nopl   0x0(%rax,%rax,1)

000000000000a370 <_ZStrsIcSt11char_traitsIcESaIcEERSt13basic_istreamIT_T0_ES7_RNSt7__cxx1112basic_stringIS4_S5_T1_EE@plt>:
    a370:	f3 0f 1e fa          	endbr64 
    a374:	f2 ff 25 ad 59 05 00 	bnd jmp *0x559ad(%rip)        # 5fd28 <_ZStrsIcSt11char_traitsIcESaIcEERSt13basic_istreamIT_T0_ES7_RNSt7__cxx1112basic_stringIS4_S5_T1_EE@GLIBCXX_3.4.21>
    a37b:	0f 1f 44 00 00       	nopl   0x0(%rax,%rax,1)

000000000000a380 <_ZdaPv@plt>:
    a380:	f3 0f 1e fa          	endbr64 
    a384:	f2 ff 25 a5 59 05 00 	bnd jmp *0x559a5(%rip)        # 5fd30 <_ZdaPv@GLIBCXX_3.4>
    a38b:	0f 1f 44 00 00       	nopl   0x0(%rax,%rax,1)

000000000000a390 <freeaddrinfo@plt>:
    a390:	f3 0f 1e fa          	endbr64 
    a394:	f2 ff 25 9d 59 05 00 	bnd jmp *0x5599d(%rip)        # 5fd38 <freeaddrinfo@GLIBC_2.2.5>
    a39b:	0f 1f 44 00 00       	nopl   0x0(%rax,%rax,1)

000000000000a3a0 <_ZNKSt7__cxx1112basic_stringIcSt11char_traitsIcESaIcEE4findEcm@plt>:
    a3a0:	f3 0f 1e fa          	endbr64 
    a3a4:	f2 ff 25 95 59 05 00 	bnd jmp *0x55995(%rip)        # 5fd40 <_ZNKSt7__cxx1112basic_stringIcSt11char_traitsIcESaIcEE4findEcm@GLIBCXX_3.4.21>
    a3ab:	0f 1f 44 00 00       	nopl   0x0(%rax,%rax,1)

000000000000a3b0 <_ZNSo5writeEPKcl@plt>:
    a3b0:	f3 0f 1e fa          	endbr64 
    a3b4:	f2 ff 25 8d 59 05 00 	bnd jmp *0x5598d(%rip)        # 5fd48 <_ZNSo5writeEPKcl@GLIBCXX_3.4>
    a3bb:	0f 1f 44 00 00       	nopl   0x0(%rax,%rax,1)

000000000000a3c0 <_ZNSt6chrono3_V212steady_clock3nowEv@plt>:
    a3c0:	f3 0f 1e fa          	endbr64 
    a3c4:	f2 ff 25 85 59 05 00 	bnd jmp *0x55985(%rip)        # 5fd50 <_ZNSt6chrono3_V212steady_clock3nowEv@GLIBCXX_3.4.19>
    a3cb:	0f 1f 44 00 00       	nopl   0x0(%rax,%rax,1)

000000000000a3d0 <strtoull@plt>:
    a3d0:	f3 0f 1e fa          	endbr64 
    a3d4:	f2 ff 25 7d 59 05 00 	bnd jmp *0x5597d(%rip)        # 5fd58 <strtoull@GLIBC_2.2.5>
    a3db:	0f 1f 44 00 00       	nopl   0x0(%rax,%rax,1)

000000000000a3e0 <_ZNSt9basic_iosIcSt11char_traitsIcEE4initEPSt15basic_streambufIcS1_E@plt>:
    a3e0:	f3 0f 1e fa          	endbr64 
    a3e4:	f2 ff 25 75 59 05 00 	bnd jmp *0x55975(%rip)        # 5fd60 <_ZNSt9basic_iosIcSt11char_traitsIcEE4initEPSt15basic_streambufIcS1_E@GLIBCXX_3.4>
    a3eb:	0f 1f 44 00 00       	nopl   0x0(%rax,%rax,1)

000000000000a3f0 <_ZNSt7__cxx1119basic_ostringstreamIcSt11char_traitsIcESaIcEEC1Ev@plt>:
    a3f0:	f3 0f 1e fa          	endbr64 
    a3f4:	f2 ff 25 6d 59 05 00 	bnd jmp *0x5596d(%rip)        # 5fd68 <_ZNSt7__cxx1119basic_ostringstreamIcSt11char_traitsIcESaIcEEC1Ev@GLIBCXX_3.4.26>
    a3fb:	0f 1f 44 00 00       	nopl   0x0(%rax,%rax,1)

000000000000a400 <pipe@plt>:
    a400:	f3 0f 1e fa          	endbr64 
    a404:	f2 ff 25 65 59 05 00 	bnd jmp *0x55965(%rip)        # 5fd70 <pipe@GLIBC_2.2.5>
    a40b:	0f 1f 44 00 00       	nopl   0x0(%rax,%rax,1)

000000000000a410 <gai_strerror@plt>:
    a410:	f3 0f 1e fa          	endbr64 
    a414:	f2 ff 25 5d 59 05 00 	bnd jmp *0x5595d(%rip)        # 5fd78 <gai_strerror@GLIBC_2.2.5>
    a41b:	0f 1f 44 00 00       	nopl   0x0(%rax,%rax,1)

000000000000a420 <putchar@plt>:
    a420:	f3 0f 1e fa          	endbr64 
    a424:	f2 ff 25 55 59 05 00 	bnd jmp *0x55955(%rip)        # 5fd80 <putchar@GLIBC_2.2.5>
    a42b:	0f 1f 44 00 00       	nopl   0x0(%rax,%rax,1)

000000000000a430 <strcmp@plt>:
    a430:	f3 0f 1e fa          	endbr64 
    a434:	f2 ff 25 4d 59 05 00 	bnd jmp *0x5594d(%rip)        # 5fd88 <strcmp@GLIBC_2.2.5>
    a43b:	0f 1f 44 00 00       	nopl   0x0(%rax,%rax,1)

000000000000a440 <strtol@plt>:
    a440:	f3 0f 1e fa          	endbr64 
    a444:	f2 ff 25 45 59 05 00 	bnd jmp *0x55945(%rip)        # 5fd90 <strtol@GLIBC_2.2.5>
    a44b:	0f 1f 44 00 00       	nopl   0x0(%rax,%rax,1)

000000000000a450 <_ZNSt6localeD1Ev@plt>:
    a450:	f3 0f 1e fa          	endbr64 
    a454:	f2 ff 25 3d 59 05 00 	bnd jmp *0x5593d(%rip)        # 5fd98 <_ZNSt6localeD1Ev@GLIBCXX_3.4>
    a45b:	0f 1f 44 00 00       	nopl   0x0(%rax,%rax,1)

000000000000a460 <_ZNSaIcEC2ERKS_@plt>:
    a460:	f3 0f 1e fa          	endbr64 
    a464:	f2 ff 25 35 59 05 00 	bnd jmp *0x55935(%rip)        # 5fda0 <_ZNSaIcEC2ERKS_@GLIBCXX_3.4>
    a46b:	0f 1f 44 00 00       	nopl   0x0(%rax,%rax,1)

000000000000a470 <read@plt>:
    a470:	f3 0f 1e fa          	endbr64 
    a474:	f2 ff 25 2d 59 05 00 	bnd jmp *0x5592d(%rip)        # 5fda8 <read@GLIBC_2.2.5>
    a47b:	0f 1f 44 00 00       	nopl   0x0(%rax,%rax,1)

000000000000a480 <__cxa_rethrow@plt>:
    a480:	f3 0f 1e fa          	endbr64 
    a484:	f2 ff 25 25 59 05 00 	bnd jmp *0x55925(%rip)        # 5fdb0 <__cxa_rethrow@CXXABI_1.3>
    a48b:	0f 1f 44 00 00       	nopl   0x0(%rax,%rax,1)

000000000000a490 <getpid@plt>:
    a490:	f3 0f 1e fa          	endbr64 
    a494:	f2 ff 25 1d 59 05 00 	bnd jmp *0x5591d(%rip)        # 5fdb8 <getpid@GLIBC_2.2.5>
    a49b:	0f 1f 44 00 00       	nopl   0x0(%rax,%rax,1)

000000000000a4a0 <pthread_mutex_lock@plt>:
    a4a0:	f3 0f 1e fa          	endbr64 
    a4a4:	f2 ff 25 15 59 05 00 	bnd jmp *0x55915(%rip)        # 5fdc0 <pthread_mutex_lock@GLIBC_2.2.5>
    a4ab:	0f 1f 44 00 00       	nopl   0x0(%rax,%rax,1)

000000000000a4b0 <chdir@plt>:
    a4b0:	f3 0f 1e fa          	endbr64 
    a4b4:	f2 ff 25 0d 59 05 00 	bnd jmp *0x5590d(%rip)        # 5fdc8 <chdir@GLIBC_2.2.5>
    a4bb:	0f 1f 44 00 00       	nopl   0x0(%rax,%rax,1)

000000000000a4c0 <iscntrl@plt>:
    a4c0:	f3 0f 1e fa          	endbr64 
    a4c4:	f2 ff 25 05 59 05 00 	bnd jmp *0x55905(%rip)        # 5fdd0 <iscntrl@GLIBC_2.2.5>
    a4cb:	0f 1f 44 00 00       	nopl   0x0(%rax,%rax,1)

000000000000a4d0 <pthread_mutex_init@plt>:
    a4d0:	f3 0f 1e fa          	endbr64 
    a4d4:	f2 ff 25 fd 58 05 00 	bnd jmp *0x558fd(%rip)        # 5fdd8 <pthread_mutex_init@GLIBC_2.2.5>
    a4db:	0f 1f 44 00 00       	nopl   0x0(%rax,%rax,1)

000000000000a4e0 <fread@plt>:
    a4e0:	f3 0f 1e fa          	endbr64 
    a4e4:	f2 ff 25 f5 58 05 00 	bnd jmp *0x558f5(%rip)        # 5fde0 <fread@GLIBC_2.2.5>
    a4eb:	0f 1f 44 00 00       	nopl   0x0(%rax,%rax,1)

000000000000a4f0 <pthread_getspecific@plt>:
    a4f0:	f3 0f 1e fa          	endbr64 
    a4f4:	f2 ff 25 ed 58 05 00 	bnd jmp *0x558ed(%rip)        # 5fde8 <pthread_getspecific@GLIBC_2.34>
    a4fb:	0f 1f 44 00 00       	nopl   0x0(%rax,%rax,1)

000000000000a500 <_ZSt24__throw_out_of_range_fmtPKcz@plt>:
    a500:	f3 0f 1e fa          	endbr64 
    a504:	f2 ff 25 e5 58 05 00 	bnd jmp *0x558e5(%rip)        # 5fdf0 <_ZSt24__throw_out_of_range_fmtPKcz@GLIBCXX_3.4.20>
    a50b:	0f 1f 44 00 00       	nopl   0x0(%rax,%rax,1)

000000000000a510 <dup@plt>:
    a510:	f3 0f 1e fa          	endbr64 
    a514:	f2 ff 25 dd 58 05 00 	bnd jmp *0x558dd(%rip)        # 5fdf8 <dup@GLIBC_2.2.5>
    a51b:	0f 1f 44 00 00       	nopl   0x0(%rax,%rax,1)

000000000000a520 <_ZNSt8ios_base4InitC1Ev@plt>:
    a520:	f3 0f 1e fa          	endbr64 
    a524:	f2 ff 25 d5 58 05 00 	bnd jmp *0x558d5(%rip)        # 5fe00 <_ZNSt8ios_base4InitC1Ev@GLIBCXX_3.4>
    a52b:	0f 1f 44 00 00       	nopl   0x0(%rax,%rax,1)

000000000000a530 <puts@plt>:
    a530:	f3 0f 1e fa          	endbr64 
    a534:	f2 ff 25 cd 58 05 00 	bnd jmp *0x558cd(%rip)        # 5fe08 <puts@GLIBC_2.2.5>
    a53b:	0f 1f 44 00 00       	nopl   0x0(%rax,%rax,1)

000000000000a540 <_ZNSt7__cxx1112basic_stringIcSt11char_traitsIcESaIcEE10_M_replaceEmmPKcm@plt>:
    a540:	f3 0f 1e fa          	endbr64 
    a544:	f2 ff 25 c5 58 05 00 	bnd jmp *0x558c5(%rip)        # 5fe10 <_ZNSt7__cxx1112basic_stringIcSt11char_traitsIcESaIcEE10_M_replaceEmmPKcm@GLIBCXX_3.4.21>
    a54b:	0f 1f 44 00 00       	nopl   0x0(%rax,%rax,1)

000000000000a550 <_ZNSt13basic_filebufIcSt11char_traitsIcEED1Ev@plt>:
    a550:	f3 0f 1e fa          	endbr64 
    a554:	f2 ff 25 bd 58 05 00 	bnd jmp *0x558bd(%rip)        # 5fe18 <_ZNSt13basic_filebufIcSt11char_traitsIcEED1Ev@GLIBCXX_3.4>
    a55b:	0f 1f 44 00 00       	nopl   0x0(%rax,%rax,1)

000000000000a560 <_ZNSt7__cxx1112basic_stringIcSt11char_traitsIcESaIcEE7reserveEm@plt>:
    a560:	f3 0f 1e fa          	endbr64 
    a564:	f2 ff 25 b5 58 05 00 	bnd jmp *0x558b5(%rip)        # 5fe20 <_ZNSt7__cxx1112basic_stringIcSt11char_traitsIcESaIcEE7reserveEm@GLIBCXX_3.4.21>
    a56b:	0f 1f 44 00 00       	nopl   0x0(%rax,%rax,1)

000000000000a570 <pthread_key_create@plt>:
    a570:	f3 0f 1e fa          	endbr64 
    a574:	f2 ff 25 ad 58 05 00 	bnd jmp *0x558ad(%rip)        # 5fe28 <pthread_key_create@GLIBC_2.34>
    a57b:	0f 1f 44 00 00       	nopl   0x0(%rax,%rax,1)

000000000000a580 <_ZNKSt7__cxx1115basic_stringbufIcSt11char_traitsIcESaIcEE3strEv@plt>:
    a580:	f3 0f 1e fa          	endbr64 
    a584:	f2 ff 25 a5 58 05 00 	bnd jmp *0x558a5(%rip)        # 5fe30 <_ZNKSt7__cxx1115basic_stringbufIcSt11char_traitsIcESaIcEE3strEv@GLIBCXX_3.4.21>
    a58b:	0f 1f 44 00 00       	nopl   0x0(%rax,%rax,1)

000000000000a590 <_ZNSo9_M_insertIdEERSoT_@plt>:
    a590:	f3 0f 1e fa          	endbr64 
    a594:	f2 ff 25 9d 58 05 00 	bnd jmp *0x5589d(%rip)        # 5fe38 <_ZNSo9_M_insertIdEERSoT_@GLIBCXX_3.4.9>
    a59b:	0f 1f 44 00 00       	nopl   0x0(%rax,%rax,1)

000000000000a5a0 <memmove@plt>:
    a5a0:	f3 0f 1e fa          	endbr64 
    a5a4:	f2 ff 25 95 58 05 00 	bnd jmp *0x55895(%rip)        # 5fe40 <memmove@GLIBC_2.2.5>
    a5ab:	0f 1f 44 00 00       	nopl   0x0(%rax,%rax,1)

000000000000a5b0 <_exit@plt>:
    a5b0:	f3 0f 1e fa          	endbr64 
    a5b4:	f2 ff 25 8d 58 05 00 	bnd jmp *0x5588d(%rip)        # 5fe48 <_exit@GLIBC_2.2.5>
    a5bb:	0f 1f 44 00 00       	nopl   0x0(%rax,%rax,1)

000000000000a5c0 <__cxa_end_catch@plt>:
    a5c0:	f3 0f 1e fa          	endbr64 
    a5c4:	f2 ff 25 85 58 05 00 	bnd jmp *0x55885(%rip)        # 5fe50 <__cxa_end_catch@CXXABI_1.3>
    a5cb:	0f 1f 44 00 00       	nopl   0x0(%rax,%rax,1)

000000000000a5d0 <__fprintf_chk@plt>:
    a5d0:	f3 0f 1e fa          	endbr64 
    a5d4:	f2 ff 25 7d 58 05 00 	bnd jmp *0x5587d(%rip)        # 5fe58 <__fprintf_chk@GLIBC_2.3.4>
    a5db:	0f 1f 44 00 00       	nopl   0x0(%rax,%rax,1)

000000000000a5e0 <_ZNSt9basic_iosIcSt11char_traitsIcEE5clearESt12_Ios_Iostate@plt>:
    a5e0:	f3 0f 1e fa          	endbr64 
    a5e4:	f2 ff 25 75 58 05 00 	bnd jmp *0x55875(%rip)        # 5fe60 <_ZNSt9basic_iosIcSt11char_traitsIcEE5clearESt12_Ios_Iostate@GLIBCXX_3.4>
    a5eb:	0f 1f 44 00 00       	nopl   0x0(%rax,%rax,1)

000000000000a5f0 <__cxa_throw@plt>:
    a5f0:	f3 0f 1e fa          	endbr64 
    a5f4:	f2 ff 25 6d 58 05 00 	bnd jmp *0x5586d(%rip)        # 5fe68 <__cxa_throw@CXXABI_1.3>
    a5fb:	0f 1f 44 00 00       	nopl   0x0(%rax,%rax,1)

000000000000a600 <_ZNSolsEi@plt>:
    a600:	f3 0f 1e fa          	endbr64 
    a604:	f2 ff 25 65 58 05 00 	bnd jmp *0x55865(%rip)        # 5fe70 <_ZNSolsEi@GLIBCXX_3.4>
    a60b:	0f 1f 44 00 00       	nopl   0x0(%rax,%rax,1)

000000000000a610 <_ZNKSt7__cxx1112basic_stringIcSt11char_traitsIcESaIcEE4findEPKcmm@plt>:
    a610:	f3 0f 1e fa          	endbr64 
    a614:	f2 ff 25 5d 58 05 00 	bnd jmp *0x5585d(%rip)        # 5fe78 <_ZNKSt7__cxx1112basic_stringIcSt11char_traitsIcESaIcEE4findEPKcmm@GLIBCXX_3.4.21>
    a61b:	0f 1f 44 00 00       	nopl   0x0(%rax,%rax,1)

000000000000a620 <isatty@plt>:
    a620:	f3 0f 1e fa          	endbr64 
    a624:	f2 ff 25 55 58 05 00 	bnd jmp *0x55855(%rip)        # 5fe80 <isatty@GLIBC_2.2.5>
    a62b:	0f 1f 44 00 00       	nopl   0x0(%rax,%rax,1)

000000000000a630 <_ZNKSt7__cxx1112basic_stringIwSt11char_traitsIwESaIwEE4findEPKwmm@plt>:
    a630:	f3 0f 1e fa          	endbr64 
    a634:	f2 ff 25 4d 58 05 00 	bnd jmp *0x5584d(%rip)        # 5fe88 <_ZNKSt7__cxx1112basic_stringIwSt11char_traitsIwESaIwEE4findEPKwmm@GLIBCXX_3.4.21>
    a63b:	0f 1f 44 00 00       	nopl   0x0(%rax,%rax,1)

000000000000a640 <_Unwind_Resume@plt>:
    a640:	f3 0f 1e fa          	endbr64 
    a644:	f2 ff 25 45 58 05 00 	bnd jmp *0x55845(%rip)        # 5fe90 <_Unwind_Resume@GCC_3.0>
    a64b:	0f 1f 44 00 00       	nopl   0x0(%rax,%rax,1)

000000000000a650 <_ZNSaIcEC1Ev@plt>:
    a650:	f3 0f 1e fa          	endbr64 
    a654:	f2 ff 25 3d 58 05 00 	bnd jmp *0x5583d(%rip)        # 5fe98 <_ZNSaIcEC1Ev@GLIBCXX_3.4>
    a65b:	0f 1f 44 00 00       	nopl   0x0(%rax,%rax,1)

000000000000a660 <mmap@plt>:
    a660:	f3 0f 1e fa          	endbr64 
    a664:	f2 ff 25 35 58 05 00 	bnd jmp *0x55835(%rip)        # 5fea0 <mmap@GLIBC_2.2.5>
    a66b:	0f 1f 44 00 00       	nopl   0x0(%rax,%rax,1)

000000000000a670 <remove@plt>:
    a670:	f3 0f 1e fa          	endbr64 
    a674:	f2 ff 25 2d 58 05 00 	bnd jmp *0x5582d(%rip)        # 5fea8 <remove@GLIBC_2.2.5>
    a67b:	0f 1f 44 00 00       	nopl   0x0(%rax,%rax,1)

000000000000a680 <getpagesize@plt>:
    a680:	f3 0f 1e fa          	endbr64 
    a684:	f2 ff 25 25 58 05 00 	bnd jmp *0x55825(%rip)        # 5feb0 <getpagesize@GLIBC_2.2.5>
    a68b:	0f 1f 44 00 00       	nopl   0x0(%rax,%rax,1)

000000000000a690 <_ZNSt7__cxx1112basic_stringIcSt11char_traitsIcESaIcEE9_M_mutateEmmPKcm@plt>:
    a690:	f3 0f 1e fa          	endbr64 
    a694:	f2 ff 25 1d 58 05 00 	bnd jmp *0x5581d(%rip)        # 5feb8 <_ZNSt7__cxx1112basic_stringIcSt11char_traitsIcESaIcEE9_M_mutateEmmPKcm@GLIBCXX_3.4.21>
    a69b:	0f 1f 44 00 00       	nopl   0x0(%rax,%rax,1)

000000000000a6a0 <__cxa_guard_acquire@plt>:
    a6a0:	f3 0f 1e fa          	endbr64 
    a6a4:	f2 ff 25 15 58 05 00 	bnd jmp *0x55815(%rip)        # 5fec0 <__cxa_guard_acquire@CXXABI_1.3>
    a6ab:	0f 1f 44 00 00       	nopl   0x0(%rax,%rax,1)

000000000000a6b0 <strdup@plt>:
    a6b0:	f3 0f 1e fa          	endbr64 
    a6b4:	f2 ff 25 0d 58 05 00 	bnd jmp *0x5580d(%rip)        # 5fec8 <strdup@GLIBC_2.2.5>
    a6bb:	0f 1f 44 00 00       	nopl   0x0(%rax,%rax,1)

000000000000a6c0 <toupper@plt>:
    a6c0:	f3 0f 1e fa          	endbr64 
    a6c4:	f2 ff 25 05 58 05 00 	bnd jmp *0x55805(%rip)        # 5fed0 <toupper@GLIBC_2.2.5>
    a6cb:	0f 1f 44 00 00       	nopl   0x0(%rax,%rax,1)

000000000000a6d0 <clone@plt>:
    a6d0:	f3 0f 1e fa          	endbr64 
    a6d4:	f2 ff 25 fd 57 05 00 	bnd jmp *0x557fd(%rip)        # 5fed8 <clone@GLIBC_2.2.5>
    a6db:	0f 1f 44 00 00       	nopl   0x0(%rax,%rax,1)

000000000000a6e0 <_ZNSt12__basic_fileIcED1Ev@plt>:
    a6e0:	f3 0f 1e fa          	endbr64 
    a6e4:	f2 ff 25 f5 57 05 00 	bnd jmp *0x557f5(%rip)        # 5fee0 <_ZNSt12__basic_fileIcED1Ev@GLIBCXX_3.4>
    a6eb:	0f 1f 44 00 00       	nopl   0x0(%rax,%rax,1)

000000000000a6f0 <wcscasecmp@plt>:
    a6f0:	f3 0f 1e fa          	endbr64 
    a6f4:	f2 ff 25 ed 57 05 00 	bnd jmp *0x557ed(%rip)        # 5fee8 <wcscasecmp@GLIBC_2.2.5>
    a6fb:	0f 1f 44 00 00       	nopl   0x0(%rax,%rax,1)

000000000000a700 <_ZNSt7__cxx1112basic_stringIcSt11char_traitsIcESaIcEE14_M_replace_auxEmmmc@plt>:
    a700:	f3 0f 1e fa          	endbr64 
    a704:	f2 ff 25 e5 57 05 00 	bnd jmp *0x557e5(%rip)        # 5fef0 <_ZNSt7__cxx1112basic_stringIcSt11char_traitsIcESaIcEE14_M_replace_auxEmmmc@GLIBCXX_3.4.21>
    a70b:	0f 1f 44 00 00       	nopl   0x0(%rax,%rax,1)

000000000000a710 <_ZNSt13runtime_errorC2EPKc@plt>:
    a710:	f3 0f 1e fa          	endbr64 
    a714:	f2 ff 25 dd 57 05 00 	bnd jmp *0x557dd(%rip)        # 5fef8 <_ZNSt13runtime_errorC2EPKc@GLIBCXX_3.4.21>
    a71b:	0f 1f 44 00 00       	nopl   0x0(%rax,%rax,1)

000000000000a720 <fwrite@plt>:
    a720:	f3 0f 1e fa          	endbr64 
    a724:	f2 ff 25 d5 57 05 00 	bnd jmp *0x557d5(%rip)        # 5ff00 <fwrite@GLIBC_2.2.5>
    a72b:	0f 1f 44 00 00       	nopl   0x0(%rax,%rax,1)

000000000000a730 <wmemcpy@plt>:
    a730:	f3 0f 1e fa          	endbr64 
    a734:	f2 ff 25 cd 57 05 00 	bnd jmp *0x557cd(%rip)        # 5ff08 <wmemcpy@GLIBC_2.2.5>
    a73b:	0f 1f 44 00 00       	nopl   0x0(%rax,%rax,1)

000000000000a740 <close@plt>:
    a740:	f3 0f 1e fa          	endbr64 
    a744:	f2 ff 25 c5 57 05 00 	bnd jmp *0x557c5(%rip)        # 5ff10 <close@GLIBC_2.2.5>
    a74b:	0f 1f 44 00 00       	nopl   0x0(%rax,%rax,1)

000000000000a750 <_ZNSt6localeC1Ev@plt>:
    a750:	f3 0f 1e fa          	endbr64 
    a754:	f2 ff 25 bd 57 05 00 	bnd jmp *0x557bd(%rip)        # 5ff18 <_ZNSt6localeC1Ev@GLIBCXX_3.4>
    a75b:	0f 1f 44 00 00       	nopl   0x0(%rax,%rax,1)

Disassembly of section .text:

000000000000a760 <_ZZN7testing8internal34TypeParameterizedTestSuiteRegistry22CheckForInstantiationsEvENUlvE_D1Ev>:
    a760:	53                   	push   %rbx
    a761:	48 89 fb             	mov    %rdi,%rbx
    a764:	48 8b 7f 40          	mov    0x40(%rdi),%rdi
    a768:	48 8d 43 50          	lea    0x50(%rbx),%rax
    a76c:	48 39 c7             	cmp    %rax,%rdi
    a76f:	74 0d                	je     a77e <_ZZN7testing8internal34TypeParameterizedTestSuiteRegistry22CheckForInstantiationsEvENUlvE_D1Ev+0x1e>
    a771:	48 8b 43 50          	mov    0x50(%rbx),%rax
    a775:	48 8d 70 01          	lea    0x1(%rax),%rsi
    a779:	e8 b2 f9 ff ff       	call   a130 <_ZdlPvm@plt>
    a77e:	48 8b 7b 20          	mov    0x20(%rbx),%rdi
    a782:	48 8d 43 30          	lea    0x30(%rbx),%rax
    a786:	48 39 c7             	cmp    %rax,%rdi
    a789:	74 0d                	je     a798 <_ZZN7testing8internal34TypeParameterizedTestSuiteRegistry22CheckForInstantiationsEvENUlvE_D1Ev+0x38>
    a78b:	48 8b 43 30          	mov    0x30(%rbx),%rax
    a78f:	48 8d 70 01          	lea    0x1(%rax),%rsi
    a793:	e8 98 f9 ff ff       	call   a130 <_ZdlPvm@plt>
    a798:	48 8b 3b             	mov    (%rbx),%rdi
    a79b:	48 8d 43 10          	lea    0x10(%rbx),%rax
    a79f:	48 39 c7             	cmp    %rax,%rdi
    a7a2:	74 0d                	je     a7b1 <_ZZN7testing8internal34TypeParameterizedTestSuiteRegistry22CheckForInstantiationsEvENUlvE_D1Ev+0x51>
    a7a4:	48 8b 73 10          	mov    0x10(%rbx),%rsi
    a7a8:	5b                   	pop    %rbx
    a7a9:	48 ff c6             	inc    %rsi
    a7ac:	e9 7f f9 ff ff       	jmp    a130 <_ZdlPvm@plt>
    a7b1:	5b                   	pop    %rbx
    a7b2:	c3                   	ret    

000000000000a7b3 <_ZN7testing8internalL21FormatDeathTestOutputERKNSt7__cxx1112basic_stringIcSt11char_traitsIcESaIcEEE.cold>:
    a7b3:	48 8b 7c 24 08       	mov    0x8(%rsp),%rdi
    a7b8:	e8 f9 4a 00 00       	call   f2b6 <_ZNSt7__cxx1112basic_stringIcSt11char_traitsIcESaIcEE10_M_disposeEv>
    a7bd:	4c 89 ef             	mov    %r13,%rdi
    a7c0:	e8 f1 4a 00 00       	call   f2b6 <_ZNSt7__cxx1112basic_stringIcSt11char_traitsIcESaIcEE10_M_disposeEv>
    a7c5:	48 89 ef             	mov    %rbp,%rdi
    a7c8:	e8 73 fe ff ff       	call   a640 <_Unwind_Resume@plt>
    a7cd:	4c 89 f7             	mov    %r14,%rdi
    a7d0:	e8 e1 4a 00 00       	call   f2b6 <_ZNSt7__cxx1112basic_stringIcSt11char_traitsIcESaIcEE10_M_disposeEv>
    a7d5:	eb e6                	jmp    a7bd <_ZN7testing8internalL21FormatDeathTestOutputERKNSt7__cxx1112basic_stringIcSt11char_traitsIcESaIcEEE.cold+0xa>
    a7d7:	90                   	nop

000000000000a7d8 <_ZN7testing8internal12AssertHelperC2ENS_14TestPartResult4TypeEPKciS5_.cold>:
    a7d8:	48 89 ef             	mov    %rbp,%rdi
    a7db:	be 38 00 00 00       	mov    $0x38,%esi
    a7e0:	e8 4b f9 ff ff       	call   a130 <_ZdlPvm@plt>
    a7e5:	4c 89 e7             	mov    %r12,%rdi
    a7e8:	e8 53 fe ff ff       	call   a640 <_Unwind_Resume@plt>
    a7ed:	90                   	nop

000000000000a7ee <_ZN7testing15AssertionResultC2ERKS0_.cold>:
    a7ee:	48 89 ef             	mov    %rbp,%rdi
    a7f1:	be 20 00 00 00       	mov    $0x20,%esi
    a7f6:	e8 35 f9 ff ff       	call   a130 <_ZdlPvm@plt>
    a7fb:	4c 89 e7             	mov    %r12,%rdi
    a7fe:	e8 3d fe ff ff       	call   a640 <_Unwind_Resume@plt>

000000000000a803 <_ZN7testing8internal20StringStreamToStringEPNSt7__cxx1118basic_stringstreamIcSt11char_traitsIcESaIcEEE.cold>:
    a803:	4c 89 e7             	mov    %r12,%rdi
    a806:	e8 ab 4a 00 00       	call   f2b6 <_ZNSt7__cxx1112basic_stringIcSt11char_traitsIcESaIcEE10_M_disposeEv>
    a80b:	48 8b 7c 24 10       	mov    0x10(%rsp),%rdi
    a810:	e8 a1 4a 00 00       	call   f2b6 <_ZNSt7__cxx1112basic_stringIcSt11char_traitsIcESaIcEE10_M_disposeEv>
    a815:	48 89 ef             	mov    %rbp,%rdi
    a818:	e8 23 fe ff ff       	call   a640 <_Unwind_Resume@plt>
    a81d:	48 8b 7c 24 10       	mov    0x10(%rsp),%rdi
    a822:	e8 8f 4a 00 00       	call   f2b6 <_ZNSt7__cxx1112basic_stringIcSt11char_traitsIcESaIcEE10_M_disposeEv>
    a827:	48 89 ef             	mov    %rbp,%rdi
    a82a:	e8 11 fe ff ff       	call   a640 <_Unwind_Resume@plt>

000000000000a82f <_ZN7testing8internal17AppendUserMessageERKNSt7__cxx1112basic_stringIcSt11char_traitsIcESaIcEEERKNS_7MessageE.cold>:
    a82f:	4c 89 f7             	mov    %r14,%rdi
    a832:	e8 7f 4a 00 00       	call   f2b6 <_ZNSt7__cxx1112basic_stringIcSt11char_traitsIcESaIcEE10_M_disposeEv>
    a837:	48 89 ef             	mov    %rbp,%rdi
    a83a:	e8 77 4a 00 00       	call   f2b6 <_ZNSt7__cxx1112basic_stringIcSt11char_traitsIcESaIcEE10_M_disposeEv>
    a83f:	4c 89 e7             	mov    %r12,%rdi
    a842:	e8 f9 fd ff ff       	call   a640 <_Unwind_Resume@plt>
    a847:	4c 89 f7             	mov    %r14,%rdi
    a84a:	e8 67 4a 00 00       	call   f2b6 <_ZNSt7__cxx1112basic_stringIcSt11char_traitsIcESaIcEE10_M_disposeEv>
    a84f:	eb e6                	jmp    a837 <_ZN7testing8internal17AppendUserMessageERKNSt7__cxx1112basic_stringIcSt11char_traitsIcESaIcEEERKNS_7MessageE.cold+0x8>
    a851:	90                   	nop

000000000000a852 <_ZNK7testing10TestResult17GetTestPartResultEi.cold>:
    a852:	e8 29 f6 ff ff       	call   9e80 <abort@plt>
    a857:	90                   	nop

000000000000a858 <_ZNK7testing10TestResult15GetTestPropertyEi.cold>:
    a858:	e8 23 f6 ff ff       	call   9e80 <abort@plt>
    a85d:	90                   	nop

000000000000a85e <_ZN7testing4TestC2Ev.cold>:
    a85e:	4c 89 ff             	mov    %r15,%rdi
    a861:	e8 50 4a 00 00       	call   f2b6 <_ZNSt7__cxx1112basic_stringIcSt11char_traitsIcESaIcEE10_M_disposeEv>
    a866:	4c 89 f7             	mov    %r14,%rdi
    a869:	e8 48 4a 00 00       	call   f2b6 <_ZNSt7__cxx1112basic_stringIcSt11char_traitsIcESaIcEE10_M_disposeEv>
    a86e:	4c 89 ef             	mov    %r13,%rdi
    a871:	e8 40 4a 00 00       	call   f2b6 <_ZNSt7__cxx1112basic_stringIcSt11char_traitsIcESaIcEE10_M_disposeEv>
    a876:	4c 89 e7             	mov    %r12,%rdi
    a879:	e8 38 4a 00 00       	call   f2b6 <_ZNSt7__cxx1112basic_stringIcSt11char_traitsIcESaIcEE10_M_disposeEv>
    a87e:	48 8b 3c 24          	mov    (%rsp),%rdi
    a882:	e8 2f 4a 00 00       	call   f2b6 <_ZNSt7__cxx1112basic_stringIcSt11char_traitsIcESaIcEE10_M_disposeEv>
    a887:	48 8b 7c 24 08       	mov    0x8(%rsp),%rdi
    a88c:	e8 25 4a 00 00       	call   f2b6 <_ZNSt7__cxx1112basic_stringIcSt11char_traitsIcESaIcEE10_M_disposeEv>
    a891:	48 89 ef             	mov    %rbp,%rdi
    a894:	be f8 00 00 00       	mov    $0xf8,%esi
    a899:	e8 92 f8 ff ff       	call   a130 <_ZdlPvm@plt>
    a89e:	48 89 df             	mov    %rbx,%rdi
    a8a1:	e8 9a fd ff ff       	call   a640 <_Unwind_Resume@plt>

000000000000a8a6 <_ZZN7testing12RegisterTestIJEZNS_8internal23InsertSyntheticTestCaseERKNSt7__cxx1112basic_stringIcSt11char_traitsIcESaIcEEENS1_12CodeLocationEbEUlvE_EEPNS_8TestInfoEPKcSF_SF_SF_SF_iT0_EN11FactoryImpl10CreateTestEv.cold>:
    a8a6:	4c 89 e7             	mov    %r12,%rdi
    a8a9:	e8 42 b3 00 00       	call   15bf0 <_ZN7testing4TestD1Ev>
    a8ae:	be 60 00 00 00       	mov    $0x60,%esi
    a8b3:	4c 89 e7             	mov    %r12,%rdi
    a8b6:	e8 75 f8 ff ff       	call   a130 <_ZdlPvm@plt>
    a8bb:	4c 89 ef             	mov    %r13,%rdi
    a8be:	e8 f3 49 00 00       	call   f2b6 <_ZNSt7__cxx1112basic_stringIcSt11char_traitsIcESaIcEE10_M_disposeEv>
    a8c3:	48 89 df             	mov    %rbx,%rdi
    a8c6:	e8 75 fd ff ff       	call   a640 <_Unwind_Resume@plt>
    a8cb:	90                   	nop

000000000000a8cc <_ZZN7testing12RegisterTestIJEZNS_8internal34TypeParameterizedTestSuiteRegistry22CheckForInstantiationsEvEUlvE_EEPNS_8TestInfoEPKcS7_S7_S7_S7_iT0_EN11FactoryImpl10CreateTestEv.cold>:
    a8cc:	4c 89 e7             	mov    %r12,%rdi
    a8cf:	e8 1c b3 00 00       	call   15bf0 <_ZN7testing4TestD1Ev>
    a8d4:	be 60 00 00 00       	mov    $0x60,%esi
    a8d9:	4c 89 e7             	mov    %r12,%rdi
    a8dc:	e8 4f f8 ff ff       	call   a130 <_ZdlPvm@plt>
    a8e1:	4c 89 ef             	mov    %r13,%rdi
    a8e4:	e8 cd 49 00 00       	call   f2b6 <_ZNSt7__cxx1112basic_stringIcSt11char_traitsIcESaIcEE10_M_disposeEv>
    a8e9:	48 89 df             	mov    %rbx,%rdi
    a8ec:	e8 4f fd ff ff       	call   a640 <_Unwind_Resume@plt>

000000000000a8f1 <_ZN7testing8internalL13ColoredPrintfENS0_12_GLOBAL__N_110GTestColorEPKcz.cold>:
    a8f1:	4c 89 ef             	mov    %r13,%rdi
    a8f4:	e8 d7 f5 ff ff       	call   9ed0 <__cxa_guard_abort@plt>
    a8f9:	48 89 ef             	mov    %rbp,%rdi
    a8fc:	e8 3f fd ff ff       	call   a640 <_Unwind_Resume@plt>

000000000000a901 <_ZN7testing8internalL17PrintColorEncodedEPKc.constprop.0.cold>:
    a901:	4c 89 ef             	mov    %r13,%rdi
    a904:	e8 ad 49 00 00       	call   f2b6 <_ZNSt7__cxx1112basic_stringIcSt11char_traitsIcESaIcEE10_M_disposeEv>
    a909:	48 89 ef             	mov    %rbp,%rdi
    a90c:	e8 2f fd ff ff       	call   a640 <_Unwind_Resume@plt>
    a911:	90                   	nop

000000000000a912 <_ZN7testing8internal24XmlUnitTestResultPrinter26RemoveInvalidXmlCharactersERKNSt7__cxx1112basic_stringIcSt11char_traitsIcESaIcEEE.cold>:
    a912:	4c 89 e7             	mov    %r12,%rdi
    a915:	e8 9c 49 00 00       	call   f2b6 <_ZNSt7__cxx1112basic_stringIcSt11char_traitsIcESaIcEE10_M_disposeEv>
    a91a:	48 89 ef             	mov    %rbp,%rdi
    a91d:	e8 1e fd ff ff       	call   a640 <_Unwind_Resume@plt>

000000000000a922 <_ZN7testing8internal10AlwaysTrueEv.cold>:
    a922:	bf 01 00 00 00       	mov    $0x1,%edi
    a927:	e8 d4 f4 ff ff       	call   9e00 <__cxa_allocate_exception@plt>
    a92c:	31 d2                	xor    %edx,%edx
    a92e:	48 8d 35 73 42 05 00 	lea    0x54273(%rip),%rsi        # 5eba8 <_ZTVN10__cxxabiv117__class_type_infoE@CXXABI_1.3>
    a935:	48 89 c7             	mov    %rax,%rdi
    a938:	e8 b3 fc ff ff       	call   a5f0 <__cxa_throw@plt>
    a93d:	90                   	nop

000000000000a93e <_ZN7testing8internal8FilePath13GetCurrentDirEv.cold>:
    a93e:	4c 89 e7             	mov    %r12,%rdi
    a941:	e8 70 49 00 00       	call   f2b6 <_ZNSt7__cxx1112basic_stringIcSt11char_traitsIcESaIcEE10_M_disposeEv>
    a946:	4c 89 ef             	mov    %r13,%rdi
    a949:	e8 68 49 00 00       	call   f2b6 <_ZNSt7__cxx1112basic_stringIcSt11char_traitsIcESaIcEE10_M_disposeEv>
    a94e:	48 89 ef             	mov    %rbp,%rdi
    a951:	e8 ea fc ff ff       	call   a640 <_Unwind_Resume@plt>

000000000000a956 <_ZNK7testing8internal8FilePath14RemoveFileNameEv.cold>:
    a956:	4c 89 e7             	mov    %r12,%rdi
    a959:	e8 58 49 00 00       	call   f2b6 <_ZNSt7__cxx1112basic_stringIcSt11char_traitsIcESaIcEE10_M_disposeEv>
    a95e:	4c 89 ef             	mov    %r13,%rdi
    a961:	e8 50 49 00 00       	call   f2b6 <_ZNSt7__cxx1112basic_stringIcSt11char_traitsIcESaIcEE10_M_disposeEv>
    a966:	48 89 ef             	mov    %rbp,%rdi
    a969:	e8 d2 fc ff ff       	call   a640 <_Unwind_Resume@plt>

000000000000a96e <_ZNK7testing8internal8FilePath19RemoveDirectoryNameEv.cold>:
    a96e:	4c 89 e7             	mov    %r12,%rdi
    a971:	e8 40 49 00 00       	call   f2b6 <_ZNSt7__cxx1112basic_stringIcSt11char_traitsIcESaIcEE10_M_disposeEv>
    a976:	4c 89 ef             	mov    %r13,%rdi
    a979:	e8 38 49 00 00       	call   f2b6 <_ZNSt7__cxx1112basic_stringIcSt11char_traitsIcESaIcEE10_M_disposeEv>
    a97e:	48 89 ef             	mov    %rbp,%rdi
    a981:	e8 ba fc ff ff       	call   a640 <_Unwind_Resume@plt>

000000000000a986 <_ZNK7testing8internal8FilePath27RemoveTrailingPathSeparatorEv.cold>:
    a986:	4c 89 e7             	mov    %r12,%rdi
    a989:	e8 28 49 00 00       	call   f2b6 <_ZNSt7__cxx1112basic_stringIcSt11char_traitsIcESaIcEE10_M_disposeEv>
    a98e:	4c 89 ef             	mov    %r13,%rdi
    a991:	e8 20 49 00 00       	call   f2b6 <_ZNSt7__cxx1112basic_stringIcSt11char_traitsIcESaIcEE10_M_disposeEv>
    a996:	48 89 ef             	mov    %rbp,%rdi
    a999:	e8 a2 fc ff ff       	call   a640 <_Unwind_Resume@plt>

000000000000a99e <_ZNK7testing8internal8FilePath28CreateDirectoriesRecursivelyEv.cold>:
    a99e:	4c 89 ef             	mov    %r13,%rdi
    a9a1:	e8 10 49 00 00       	call   f2b6 <_ZNSt7__cxx1112basic_stringIcSt11char_traitsIcESaIcEE10_M_disposeEv>
    a9a6:	48 89 ef             	mov    %rbp,%rdi
    a9a9:	e8 92 fc ff ff       	call   a640 <_Unwind_Resume@plt>
    a9ae:	4c 89 e7             	mov    %r12,%rdi
    a9b1:	e8 00 49 00 00       	call   f2b6 <_ZNSt7__cxx1112basic_stringIcSt11char_traitsIcESaIcEE10_M_disposeEv>
    a9b6:	48 89 ef             	mov    %rbp,%rdi
    a9b9:	e8 82 fc ff ff       	call   a640 <_Unwind_Resume@plt>

000000000000a9be <_ZN7testing8internal8FilePath11ConcatPathsERKS1_S3_.cold>:
    a9be:	4c 89 e7             	mov    %r12,%rdi
    a9c1:	e8 f0 48 00 00       	call   f2b6 <_ZNSt7__cxx1112basic_stringIcSt11char_traitsIcESaIcEE10_M_disposeEv>
    a9c6:	48 8d 7c 24 40       	lea    0x40(%rsp),%rdi
    a9cb:	e8 e6 48 00 00       	call   f2b6 <_ZNSt7__cxx1112basic_stringIcSt11char_traitsIcESaIcEE10_M_disposeEv>
    a9d0:	48 89 ef             	mov    %rbp,%rdi
    a9d3:	e8 de 48 00 00       	call   f2b6 <_ZNSt7__cxx1112basic_stringIcSt11char_traitsIcESaIcEE10_M_disposeEv>
    a9d8:	4c 89 ef             	mov    %r13,%rdi
    a9db:	e8 d6 48 00 00       	call   f2b6 <_ZNSt7__cxx1112basic_stringIcSt11char_traitsIcESaIcEE10_M_disposeEv>
    a9e0:	48 89 df             	mov    %rbx,%rdi
    a9e3:	e8 58 fc ff ff       	call   a640 <_Unwind_Resume@plt>
    a9e8:	48 89 ef             	mov    %rbp,%rdi
    a9eb:	e8 c6 48 00 00       	call   f2b6 <_ZNSt7__cxx1112basic_stringIcSt11char_traitsIcESaIcEE10_M_disposeEv>
    a9f0:	eb e6                	jmp    a9d8 <_ZN7testing8internal8FilePath11ConcatPathsERKS1_S3_.cold+0x1a>

000000000000a9f2 <_ZNK7testing8internal8FilePath15RemoveExtensionEPKc.cold>:
    a9f2:	4c 89 e7             	mov    %r12,%rdi
    a9f5:	e8 bc 48 00 00       	call   f2b6 <_ZNSt7__cxx1112basic_stringIcSt11char_traitsIcESaIcEE10_M_disposeEv>
    a9fa:	4c 89 ef             	mov    %r13,%rdi
    a9fd:	e8 b4 48 00 00       	call   f2b6 <_ZNSt7__cxx1112basic_stringIcSt11char_traitsIcESaIcEE10_M_disposeEv>
    aa02:	4c 89 ff             	mov    %r15,%rdi
    aa05:	e8 ac 48 00 00       	call   f2b6 <_ZNSt7__cxx1112basic_stringIcSt11char_traitsIcESaIcEE10_M_disposeEv>
    aa0a:	48 89 ef             	mov    %rbp,%rdi
    aa0d:	e8 2e fc ff ff       	call   a640 <_Unwind_Resume@plt>
    aa12:	4c 89 ef             	mov    %r13,%rdi
    aa15:	e8 9c 48 00 00       	call   f2b6 <_ZNSt7__cxx1112basic_stringIcSt11char_traitsIcESaIcEE10_M_disposeEv>
    aa1a:	48 89 ef             	mov    %rbp,%rdi
    aa1d:	e8 1e fc ff ff       	call   a640 <_Unwind_Resume@plt>

000000000000aa22 <_ZN7testing8internal8GTestLogD2Ev.cold>:
    aa22:	48 8b 05 77 55 05 00 	mov    0x55577(%rip),%rax        # 5ffa0 <stderr@GLIBC_2.2.5>
    aa29:	48 8b 38             	mov    (%rax),%rdi
    aa2c:	e8 4f f8 ff ff       	call   a280 <fflush@plt>
    aa31:	e8 4a f4 ff ff       	call   9e80 <abort@plt>

000000000000aa36 <_ZNK7testing19TestPartResultArray17GetTestPartResultEi.cold>:
    aa36:	44 89 e2             	mov    %r12d,%edx
    aa39:	48 8d 35 a8 cd 03 00 	lea    0x3cda8(%rip),%rsi        # 477e8 <_ZTSN10tag_invoke17tag_invoke_1_TestE+0x1028>
    aa40:	bf 01 00 00 00       	mov    $0x1,%edi
    aa45:	31 c0                	xor    %eax,%eax
    aa47:	e8 84 f1 ff ff       	call   9bd0 <__printf_chk@plt>
    aa4c:	e8 2f f4 ff ff       	call   9e80 <abort@plt>
    aa51:	90                   	nop

000000000000aa52 <_ZN7testing7MessageC2Ev.cold>:
    aa52:	49 8b 54 24 e8       	mov    -0x18(%r12),%rdx
    aa57:	4c 89 65 00          	mov    %r12,0x0(%rbp)
    aa5b:	49 89 c6             	mov    %rax,%r14
    aa5e:	4c 89 7c 15 00       	mov    %r15,0x0(%rbp,%rdx,1)
    aa63:	48 c7 45 08 00 00 00 	movq   $0x0,0x8(%rbp)
    aa6a:	00 
    aa6b:	48 8b 05 c6 54 05 00 	mov    0x554c6(%rip),%rax        # 5ff38 <_ZTVSt9basic_iosIcSt11char_traitsIcEE@GLIBCXX_3.4>
    aa72:	4c 89 ef             	mov    %r13,%rdi
    aa75:	48 83 c0 10          	add    $0x10,%rax
    aa79:	48 89 85 80 00 00 00 	mov    %rax,0x80(%rbp)
    aa80:	e8 db f2 ff ff       	call   9d60 <_ZNSt8ios_baseD2Ev@plt>
    aa85:	48 89 ef             	mov    %rbp,%rdi
    aa88:	be 88 01 00 00       	mov    $0x188,%esi
    aa8d:	e8 9e f6 ff ff       	call   a130 <_ZdlPvm@plt>
    aa92:	4c 89 f7             	mov    %r14,%rdi
    aa95:	e8 a6 fb ff ff       	call   a640 <_Unwind_Resume@plt>
    aa9a:	4c 89 e7             	mov    %r12,%rdi
    aa9d:	e8 9e 06 03 00       	call   3b140 <_ZNSt7__cxx1115basic_stringbufIcSt11char_traitsIcESaIcEED1Ev>
    aaa2:	48 8d 73 08          	lea    0x8(%rbx),%rsi
    aaa6:	48 89 ef             	mov    %rbp,%rdi
    aaa9:	e8 c2 f1 ff ff       	call   9c70 <_ZNSdD2Ev@plt>
    aaae:	eb bb                	jmp    aa6b <_ZN7testing7MessageC2Ev.cold+0x19>

000000000000aab0 <_ZN7testing8internal30GetBoolAssertionFailureMessageB5cxx11ERKNS_15AssertionResultEPKcS5_S5_.cold>:
    aab0:	4c 89 ef             	mov    %r13,%rdi
    aab3:	e8 38 07 03 00       	call   3b1f0 <_ZNSt10unique_ptrINSt7__cxx1118basic_stringstreamIcSt11char_traitsIcESaIcEEESt14default_deleteIS5_EED1Ev>
    aab8:	48 89 ef             	mov    %rbp,%rdi
    aabb:	e8 80 fb ff ff       	call   a640 <_Unwind_Resume@plt>

000000000000aac0 <_ZN7testing8internalL12FlagToEnvVarEPKc.cold>:
    aac0:	4c 89 e7             	mov    %r12,%rdi
    aac3:	e8 28 07 03 00       	call   3b1f0 <_ZNSt10unique_ptrINSt7__cxx1118basic_stringstreamIcSt11char_traitsIcESaIcEEESt14default_deleteIS5_EED1Ev>
    aac8:	48 89 ef             	mov    %rbp,%rdi
    aacb:	e8 70 fb ff ff       	call   a640 <_Unwind_Resume@plt>
    aad0:	4c 89 e7             	mov    %r12,%rdi
    aad3:	e8 18 07 03 00       	call   3b1f0 <_ZNSt10unique_ptrINSt7__cxx1118basic_stringstreamIcSt11char_traitsIcESaIcEEESt14default_deleteIS5_EED1Ev>
    aad8:	4c 89 f7             	mov    %r14,%rdi
    aadb:	e8 d6 47 00 00       	call   f2b6 <_ZNSt7__cxx1112basic_stringIcSt11char_traitsIcESaIcEE10_M_disposeEv>
    aae0:	48 89 ef             	mov    %rbp,%rdi
    aae3:	e8 58 fb ff ff       	call   a640 <_Unwind_Resume@plt>

000000000000aae8 <_ZN7testing16AssertionFailureERKNS_7MessageE.cold>:
    aae8:	48 89 df             	mov    %rbx,%rdi
    aaeb:	e8 c6 47 00 00       	call   f2b6 <_ZNSt7__cxx1112basic_stringIcSt11char_traitsIcESaIcEE10_M_disposeEv>
    aaf0:	4c 89 ff             	mov    %r15,%rdi
    aaf3:	e8 f8 06 03 00       	call   3b1f0 <_ZNSt10unique_ptrINSt7__cxx1118basic_stringstreamIcSt11char_traitsIcESaIcEEESt14default_deleteIS5_EED1Ev>
    aaf8:	48 8b 7c 24 18       	mov    0x18(%rsp),%rdi
    aafd:	48 85 ff             	test   %rdi,%rdi
    ab00:	74 05                	je     ab07 <_ZN7testing16AssertionFailureERKNS_7MessageE.cold+0x1f>
    ab02:	e8 29 8a 00 00       	call   13530 <_ZNKSt14default_deleteIKNSt7__cxx1112basic_stringIcSt11char_traitsIcESaIcEEEEclEPS6_.part.0>
    ab07:	48 89 ef             	mov    %rbp,%rdi
    ab0a:	e8 31 fb ff ff       	call   a640 <_Unwind_Resume@plt>
    ab0f:	90                   	nop

000000000000ab10 <_ZNK7testing15AssertionResultntEv.cold>:
    ab10:	48 89 ef             	mov    %rbp,%rdi
    ab13:	48 89 dd             	mov    %rbx,%rbp
    ab16:	e8 d5 06 03 00       	call   3b1f0 <_ZNSt10unique_ptrINSt7__cxx1118basic_stringstreamIcSt11char_traitsIcESaIcEEESt14default_deleteIS5_EED1Ev>
    ab1b:	49 8b 7c 24 08       	mov    0x8(%r12),%rdi
    ab20:	48 85 ff             	test   %rdi,%rdi
    ab23:	74 05                	je     ab2a <_ZNK7testing15AssertionResultntEv.cold+0x1a>
    ab25:	e8 06 8a 00 00       	call   13530 <_ZNKSt14default_deleteIKNSt7__cxx1112basic_stringIcSt11char_traitsIcESaIcEEEEclEPS6_.part.0>
    ab2a:	48 89 ef             	mov    %rbp,%rdi
    ab2d:	e8 0e fb ff ff       	call   a640 <_Unwind_Resume@plt>

000000000000ab32 <_ZN7testing8internalL25FormatCxxExceptionMessageEPKcS2_>:
    ab32:	41 54                	push   %r12
    ab34:	49 89 fc             	mov    %rdi,%r12
    ab37:	55                   	push   %rbp
    ab38:	48 83 ec 28          	sub    $0x28,%rsp
    ab3c:	48 89 74 24 08       	mov    %rsi,0x8(%rsp)
    ab41:	48 8d 6c 24 10       	lea    0x10(%rsp),%rbp
    ab46:	48 89 14 24          	mov    %rdx,(%rsp)
    ab4a:	48 89 ef             	mov    %rbp,%rdi
    ab4d:	64 48 8b 04 25 28 00 	mov    %fs:0x28,%rax
    ab54:	00 00 
    ab56:	48 89 44 24 18       	mov    %rax,0x18(%rsp)
    ab5b:	31 c0                	xor    %eax,%eax
    ab5d:	e8 8e e1 00 00       	call   18cf0 <_ZN7testing7MessageC1Ev>
    ab62:	48 83 7c 24 08 00    	cmpq   $0x0,0x8(%rsp)
    ab68:	48 8b 7c 24 10       	mov    0x10(%rsp),%rdi
    ab6d:	74 47                	je     abb6 <_ZN7testing8internalL25FormatCxxExceptionMessageEPKcS2_+0x84>
    ab6f:	48 83 c7 10          	add    $0x10,%rdi
    ab73:	48 8d 35 9e cc 03 00 	lea    0x3cc9e(%rip),%rsi        # 47818 <_ZTSN10tag_invoke17tag_invoke_1_TestE+0x1058>
    ab7a:	e8 61 f5 ff ff       	call   a0e0 <_ZStlsISt11char_traitsIcEERSt13basic_ostreamIcT_ES5_PKc@plt>
    ab7f:	48 8d 74 24 08       	lea    0x8(%rsp),%rsi
    ab84:	48 89 ef             	mov    %rbp,%rdi
    ab87:	e8 44 09 03 00       	call   3b4d0 <_ZN7testing7MessagelsIKcEERS0_RKPT_>
    ab8c:	48 8b 38             	mov    (%rax),%rdi
    ab8f:	48 8d 35 3e c3 03 00 	lea    0x3c33e(%rip),%rsi        # 46ed4 <_ZTSN10tag_invoke17tag_invoke_1_TestE+0x714>
    ab96:	48 83 c7 10          	add    $0x10,%rdi
    ab9a:	e8 41 f5 ff ff       	call   a0e0 <_ZStlsISt11char_traitsIcEERSt13basic_ostreamIcT_ES5_PKc@plt>
    ab9f:	48 8b 44 24 10       	mov    0x10(%rsp),%rax
    aba4:	48 8d 35 8a be 03 00 	lea    0x3be8a(%rip),%rsi        # 46a35 <_ZTSN10tag_invoke17tag_invoke_1_TestE+0x275>
    abab:	48 8d 78 10          	lea    0x10(%rax),%rdi
    abaf:	e8 2c f5 ff ff       	call   a0e0 <_ZStlsISt11char_traitsIcEERSt13basic_ostreamIcT_ES5_PKc@plt>
    abb4:	eb 12                	jmp    abc8 <_ZN7testing8internalL25FormatCxxExceptionMessageEPKcS2_+0x96>
    abb6:	48 83 c7 10          	add    $0x10,%rdi
    abba:	48 8d 35 80 be 03 00 	lea    0x3be80(%rip),%rsi        # 46a41 <_ZTSN10tag_invoke17tag_invoke_1_TestE+0x281>
    abc1:	e8 1a f5 ff ff       	call   a0e0 <_ZStlsISt11char_traitsIcEERSt13basic_ostreamIcT_ES5_PKc@plt>
    abc6:	eb d7                	jmp    ab9f <_ZN7testing8internalL25FormatCxxExceptionMessageEPKcS2_+0x6d>
    abc8:	48 89 e6             	mov    %rsp,%rsi
    abcb:	48 89 ef             	mov    %rbp,%rdi
    abce:	e8 fd 08 03 00       	call   3b4d0 <_ZN7testing7MessagelsIKcEERS0_RKPT_>
    abd3:	48 8b 38             	mov    (%rax),%rdi
    abd6:	48 8d 35 e9 c4 03 00 	lea    0x3c4e9(%rip),%rsi        # 470c6 <_ZTSN10tag_invoke17tag_invoke_1_TestE+0x906>
    abdd:	48 83 c7 10          	add    $0x10,%rdi
    abe1:	e8 fa f4 ff ff       	call   a0e0 <_ZStlsISt11char_traitsIcEERSt13basic_ostreamIcT_ES5_PKc@plt>
    abe6:	48 89 ee             	mov    %rbp,%rsi
    abe9:	4c 89 e7             	mov    %r12,%rdi
    abec:	e8 0f a5 00 00       	call   15100 <_ZNK7testing7Message9GetStringB5cxx11Ev>
    abf1:	48 89 ef             	mov    %rbp,%rdi
    abf4:	e8 f7 05 03 00       	call   3b1f0 <_ZNSt10unique_ptrINSt7__cxx1118basic_stringstreamIcSt11char_traitsIcESaIcEEESt14default_deleteIS5_EED1Ev>
    abf9:	48 8b 44 24 18       	mov    0x18(%rsp),%rax
    abfe:	64 48 2b 04 25 28 00 	sub    %fs:0x28,%rax
    ac05:	00 00 
    ac07:	74 1c                	je     ac25 <_ZN7testing8internalL25FormatCxxExceptionMessageEPKcS2_+0xf3>
    ac09:	e8 e2 f5 ff ff       	call   a1f0 <__stack_chk_fail@plt>
    ac0e:	f3 0f 1e fa          	endbr64 
    ac12:	49 89 c4             	mov    %rax,%r12
    ac15:	48 89 ef             	mov    %rbp,%rdi
    ac18:	e8 d3 05 03 00       	call   3b1f0 <_ZNSt10unique_ptrINSt7__cxx1118basic_stringstreamIcSt11char_traitsIcESaIcEEESt14default_deleteIS5_EED1Ev>
    ac1d:	4c 89 e7             	mov    %r12,%rdi
    ac20:	e8 1b fa ff ff       	call   a640 <_Unwind_Resume@plt>
    ac25:	48 83 c4 28          	add    $0x28,%rsp
    ac29:	4c 89 e0             	mov    %r12,%rax
    ac2c:	5d                   	pop    %rbp
    ac2d:	41 5c                	pop    %r12
    ac2f:	c3                   	ret    

000000000000ac30 <_ZN7testing8internal10ParseInt32ERKNS_7MessageEPKcPi.cold>:
    ac30:	4c 89 f7             	mov    %r14,%rdi
    ac33:	e8 7e 46 00 00       	call   f2b6 <_ZNSt7__cxx1112basic_stringIcSt11char_traitsIcESaIcEE10_M_disposeEv>
    ac38:	4c 89 ef             	mov    %r13,%rdi
    ac3b:	e8 b0 05 03 00       	call   3b1f0 <_ZNSt10unique_ptrINSt7__cxx1118basic_stringstreamIcSt11char_traitsIcESaIcEEESt14default_deleteIS5_EED1Ev>
    ac40:	48 89 ef             	mov    %rbp,%rdi
    ac43:	e8 f8 f9 ff ff       	call   a640 <_Unwind_Resume@plt>
    ac48:	4c 89 f7             	mov    %r14,%rdi
    ac4b:	e8 66 46 00 00       	call   f2b6 <_ZNSt7__cxx1112basic_stringIcSt11char_traitsIcESaIcEE10_M_disposeEv>
    ac50:	eb e6                	jmp    ac38 <_ZN7testing8internal10ParseInt32ERKNS_7MessageEPKcPi.cold+0x8>
    ac52:	4c 89 f7             	mov    %r14,%rdi
    ac55:	e8 5c 46 00 00       	call   f2b6 <_ZNSt7__cxx1112basic_stringIcSt11char_traitsIcESaIcEE10_M_disposeEv>
    ac5a:	4c 89 ef             	mov    %r13,%rdi
    ac5d:	e8 8e 05 03 00       	call   3b1f0 <_ZNSt10unique_ptrINSt7__cxx1118basic_stringstreamIcSt11char_traitsIcESaIcEEESt14default_deleteIS5_EED1Ev>
    ac62:	48 89 ef             	mov    %rbp,%rdi
    ac65:	e8 d6 f9 ff ff       	call   a640 <_Unwind_Resume@plt>
    ac6a:	4c 89 f7             	mov    %r14,%rdi
    ac6d:	e8 44 46 00 00       	call   f2b6 <_ZNSt7__cxx1112basic_stringIcSt11char_traitsIcESaIcEE10_M_disposeEv>
    ac72:	eb e6                	jmp    ac5a <_ZN7testing8internal10ParseInt32ERKNS_7MessageEPKcPi.cold+0x2a>

000000000000ac74 <_ZN7testing8internal17Int32FromEnvOrDieEPKci.cold>:
    ac74:	4c 89 ef             	mov    %r13,%rdi
    ac77:	e8 74 05 03 00       	call   3b1f0 <_ZNSt10unique_ptrINSt7__cxx1118basic_stringstreamIcSt11char_traitsIcESaIcEEESt14default_deleteIS5_EED1Ev>
    ac7c:	48 89 ef             	mov    %rbp,%rdi
    ac7f:	e8 bc f9 ff ff       	call   a640 <_Unwind_Resume@plt>

000000000000ac84 <_ZN7testing8internal11ShouldShardEPKcS2_b.cold>:
    ac84:	4c 89 ef             	mov    %r13,%rdi
    ac87:	e8 64 05 03 00       	call   3b1f0 <_ZNSt10unique_ptrINSt7__cxx1118basic_stringstreamIcSt11char_traitsIcESaIcEEESt14default_deleteIS5_EED1Ev>
    ac8c:	48 89 ef             	mov    %rbp,%rdi
    ac8f:	e8 ac f9 ff ff       	call   a640 <_Unwind_Resume@plt>
    ac94:	48 89 ef             	mov    %rbp,%rdi
    ac97:	e8 1a 46 00 00       	call   f2b6 <_ZNSt7__cxx1112basic_stringIcSt11char_traitsIcESaIcEE10_M_disposeEv>
    ac9c:	4c 89 f7             	mov    %r14,%rdi
    ac9f:	e8 4c 05 03 00       	call   3b1f0 <_ZNSt10unique_ptrINSt7__cxx1118basic_stringstreamIcSt11char_traitsIcESaIcEEESt14default_deleteIS5_EED1Ev>
    aca4:	4c 89 e7             	mov    %r12,%rdi
    aca7:	e8 94 f9 ff ff       	call   a640 <_Unwind_Resume@plt>
    acac:	48 89 ef             	mov    %rbp,%rdi
    acaf:	e8 02 46 00 00       	call   f2b6 <_ZNSt7__cxx1112basic_stringIcSt11char_traitsIcESaIcEE10_M_disposeEv>
    acb4:	eb e6                	jmp    ac9c <_ZN7testing8internal11ShouldShardEPKcS2_b.cold+0x18>
    acb6:	48 89 ef             	mov    %rbp,%rdi
    acb9:	e8 f8 45 00 00       	call   f2b6 <_ZNSt7__cxx1112basic_stringIcSt11char_traitsIcESaIcEE10_M_disposeEv>
    acbe:	eb dc                	jmp    ac9c <_ZN7testing8internal11ShouldShardEPKcS2_b.cold+0x18>

000000000000acc0 <_ZN7testing8internal17Int32FromGTestEnvEPKci.cold>:
    acc0:	48 89 ef             	mov    %rbp,%rdi
    acc3:	48 89 dd             	mov    %rbx,%rbp
    acc6:	e8 eb 45 00 00       	call   f2b6 <_ZNSt7__cxx1112basic_stringIcSt11char_traitsIcESaIcEE10_M_disposeEv>
    accb:	4c 89 ef             	mov    %r13,%rdi
    acce:	e8 1d 05 03 00       	call   3b1f0 <_ZNSt10unique_ptrINSt7__cxx1118basic_stringstreamIcSt11char_traitsIcESaIcEEESt14default_deleteIS5_EED1Ev>
    acd3:	4c 89 e7             	mov    %r12,%rdi
    acd6:	e8 db 45 00 00       	call   f2b6 <_ZNSt7__cxx1112basic_stringIcSt11char_traitsIcESaIcEE10_M_disposeEv>
    acdb:	48 89 ef             	mov    %rbp,%rdi
    acde:	e8 5d f9 ff ff       	call   a640 <_Unwind_Resume@plt>
    ace3:	4c 89 ef             	mov    %r13,%rdi
    ace6:	e8 05 05 03 00       	call   3b1f0 <_ZNSt10unique_ptrINSt7__cxx1118basic_stringstreamIcSt11char_traitsIcESaIcEEESt14default_deleteIS5_EED1Ev>
    aceb:	eb e6                	jmp    acd3 <_ZN7testing8internal17Int32FromGTestEnvEPKci.cold+0x13>

000000000000aced <_ZN7testingL19FormatCountableNounEiPKcS1_.cold>:
    aced:	4c 89 f7             	mov    %r14,%rdi
    acf0:	e8 c1 45 00 00       	call   f2b6 <_ZNSt7__cxx1112basic_stringIcSt11char_traitsIcESaIcEE10_M_disposeEv>
    acf5:	4c 89 ef             	mov    %r13,%rdi
    acf8:	e8 b9 45 00 00       	call   f2b6 <_ZNSt7__cxx1112basic_stringIcSt11char_traitsIcESaIcEE10_M_disposeEv>
    acfd:	48 89 ef             	mov    %rbp,%rdi
    ad00:	e8 3b f9 ff ff       	call   a640 <_Unwind_Resume@plt>
    ad05:	90                   	nop

000000000000ad06 <_ZN7testing8internal27PrettyUnitTestResultPrinter16PrintFailedTestsERKNS_8UnitTestE.cold>:
    ad06:	48 89 ef             	mov    %rbp,%rdi
    ad09:	e8 a8 45 00 00       	call   f2b6 <_ZNSt7__cxx1112basic_stringIcSt11char_traitsIcESaIcEE10_M_disposeEv>
    ad0e:	4c 89 e7             	mov    %r12,%rdi
    ad11:	e8 2a f9 ff ff       	call   a640 <_Unwind_Resume@plt>

000000000000ad16 <_ZN7testing8internal27PrettyUnitTestResultPrinter15OnTestCaseStartERKNS_9TestSuiteE.cold>:
    ad16:	48 89 ef             	mov    %rbp,%rdi
    ad19:	e8 98 45 00 00       	call   f2b6 <_ZNSt7__cxx1112basic_stringIcSt11char_traitsIcESaIcEE10_M_disposeEv>
    ad1e:	4c 89 e7             	mov    %r12,%rdi
    ad21:	e8 1a f9 ff ff       	call   a640 <_Unwind_Resume@plt>

000000000000ad26 <_ZN7testing8internal27PrettyUnitTestResultPrinter20OnTestIterationStartERKNS_8UnitTestEi.cold>:
    ad26:	48 89 ef             	mov    %rbp,%rdi
    ad29:	e8 88 45 00 00       	call   f2b6 <_ZNSt7__cxx1112basic_stringIcSt11char_traitsIcESaIcEE10_M_disposeEv>
    ad2e:	4c 89 e7             	mov    %r12,%rdi
    ad31:	e8 80 45 00 00       	call   f2b6 <_ZNSt7__cxx1112basic_stringIcSt11char_traitsIcESaIcEE10_M_disposeEv>
    ad36:	4c 89 ef             	mov    %r13,%rdi
    ad39:	e8 02 f9 ff ff       	call   a640 <_Unwind_Resume@plt>

000000000000ad3e <_ZN7testing8internal37FormatCompilerIndependentFileLocationB5cxx11EPKci.cold>:
    ad3e:	48 89 ef             	mov    %rbp,%rdi
    ad41:	e8 70 45 00 00       	call   f2b6 <_ZNSt7__cxx1112basic_stringIcSt11char_traitsIcESaIcEE10_M_disposeEv>
    ad46:	4c 89 f7             	mov    %r14,%rdi
    ad49:	e8 68 45 00 00       	call   f2b6 <_ZNSt7__cxx1112basic_stringIcSt11char_traitsIcESaIcEE10_M_disposeEv>
    ad4e:	4c 89 ef             	mov    %r13,%rdi
    ad51:	e8 60 45 00 00       	call   f2b6 <_ZNSt7__cxx1112basic_stringIcSt11char_traitsIcESaIcEE10_M_disposeEv>
    ad56:	48 89 df             	mov    %rbx,%rdi
    ad59:	e8 e2 f8 ff ff       	call   a640 <_Unwind_Resume@plt>
    ad5e:	48 89 ef             	mov    %rbp,%rdi
    ad61:	e8 50 45 00 00       	call   f2b6 <_ZNSt7__cxx1112basic_stringIcSt11char_traitsIcESaIcEE10_M_disposeEv>
    ad66:	eb de                	jmp    ad46 <_ZN7testing8internal37FormatCompilerIndependentFileLocationB5cxx11EPKci.cold+0x8>

000000000000ad68 <_ZN7testing8internalL14ParseFlagValueEPKcS2_b.cold>:
    ad68:	4c 89 ff             	mov    %r15,%rdi
    ad6b:	e8 46 45 00 00       	call   f2b6 <_ZNSt7__cxx1112basic_stringIcSt11char_traitsIcESaIcEE10_M_disposeEv>
    ad70:	48 89 ef             	mov    %rbp,%rdi
    ad73:	e8 3e 45 00 00       	call   f2b6 <_ZNSt7__cxx1112basic_stringIcSt11char_traitsIcESaIcEE10_M_disposeEv>
    ad78:	4c 89 e7             	mov    %r12,%rdi
    ad7b:	e8 c0 f8 ff ff       	call   a640 <_Unwind_Resume@plt>

000000000000ad80 <_ZN7testing8internal14ParseInt32FlagEPKcS2_Pi.cold>:
    ad80:	4c 89 ff             	mov    %r15,%rdi
    ad83:	e8 68 04 03 00       	call   3b1f0 <_ZNSt10unique_ptrINSt7__cxx1118basic_stringstreamIcSt11char_traitsIcESaIcEEESt14default_deleteIS5_EED1Ev>
    ad88:	48 89 ef             	mov    %rbp,%rdi
    ad8b:	e8 b0 f8 ff ff       	call   a640 <_Unwind_Resume@plt>

000000000000ad90 <_ZN7testing8internal25OutputFlagAlsoCheckEnvVarB5cxx11Ev.cold>:
    ad90:	4c 89 f7             	mov    %r14,%rdi
    ad93:	e8 1e 45 00 00       	call   f2b6 <_ZNSt7__cxx1112basic_stringIcSt11char_traitsIcESaIcEE10_M_disposeEv>
    ad98:	4c 89 e7             	mov    %r12,%rdi
    ad9b:	e8 16 45 00 00       	call   f2b6 <_ZNSt7__cxx1112basic_stringIcSt11char_traitsIcESaIcEE10_M_disposeEv>
    ada0:	48 89 ef             	mov    %rbp,%rdi
    ada3:	e8 98 f8 ff ff       	call   a640 <_Unwind_Resume@plt>

000000000000ada8 <_ZN7testing8internal15UnitTestOptions17FilterMatchesTestERKNSt7__cxx1112basic_stringIcSt11char_traitsIcESaIcEEES9_.cold>:
    ada8:	4c 89 e7             	mov    %r12,%rdi
    adab:	e8 06 45 00 00       	call   f2b6 <_ZNSt7__cxx1112basic_stringIcSt11char_traitsIcESaIcEE10_M_disposeEv>
    adb0:	48 89 ef             	mov    %rbp,%rdi
    adb3:	e8 88 f8 ff ff       	call   a640 <_Unwind_Resume@plt>
    adb8:	4c 89 e7             	mov    %r12,%rdi
    adbb:	e8 f6 44 00 00       	call   f2b6 <_ZNSt7__cxx1112basic_stringIcSt11char_traitsIcESaIcEE10_M_disposeEv>
    adc0:	48 89 ef             	mov    %rbp,%rdi
    adc3:	e8 78 f8 ff ff       	call   a640 <_Unwind_Resume@plt>
    adc8:	4c 89 ef             	mov    %r13,%rdi
    adcb:	e8 e6 44 00 00       	call   f2b6 <_ZNSt7__cxx1112basic_stringIcSt11char_traitsIcESaIcEE10_M_disposeEv>
    add0:	48 8b 7c 24 18       	mov    0x18(%rsp),%rdi
    add5:	e8 dc 44 00 00       	call   f2b6 <_ZNSt7__cxx1112basic_stringIcSt11char_traitsIcESaIcEE10_M_disposeEv>
    adda:	4c 89 f7             	mov    %r14,%rdi
    addd:	e8 d4 44 00 00       	call   f2b6 <_ZNSt7__cxx1112basic_stringIcSt11char_traitsIcESaIcEE10_M_disposeEv>
    ade2:	48 89 ef             	mov    %rbp,%rdi
    ade5:	e8 56 f8 ff ff       	call   a640 <_Unwind_Resume@plt>

000000000000adea <_ZN7testing8internal12UnitTestImpl11FilterTestsENS1_18ReactionToShardingE.cold>:
    adea:	4c 89 ff             	mov    %r15,%rdi
    aded:	e8 c4 44 00 00       	call   f2b6 <_ZNSt7__cxx1112basic_stringIcSt11char_traitsIcESaIcEE10_M_disposeEv>
    adf2:	48 8b 3c 24          	mov    (%rsp),%rdi
    adf6:	e8 bb 44 00 00       	call   f2b6 <_ZNSt7__cxx1112basic_stringIcSt11char_traitsIcESaIcEE10_M_disposeEv>
    adfb:	48 89 ef             	mov    %rbp,%rdi
    adfe:	e8 3d f8 ff ff       	call   a640 <_Unwind_Resume@plt>
    ae03:	90                   	nop

000000000000ae04 <_ZN7testing8internal8FilePath12MakeFileNameERKS1_S3_iPKc.cold>:
    ae04:	4c 89 ef             	mov    %r13,%rdi
    ae07:	e8 aa 44 00 00       	call   f2b6 <_ZNSt7__cxx1112basic_stringIcSt11char_traitsIcESaIcEE10_M_disposeEv>
    ae0c:	48 8b 7c 24 18       	mov    0x18(%rsp),%rdi
    ae11:	48 89 eb             	mov    %rbp,%rbx
    ae14:	4c 8d 74 24 30       	lea    0x30(%rsp),%r14
    ae19:	e8 98 44 00 00       	call   f2b6 <_ZNSt7__cxx1112basic_stringIcSt11char_traitsIcESaIcEE10_M_disposeEv>
    ae1e:	4c 89 f7             	mov    %r14,%rdi
    ae21:	e8 90 44 00 00       	call   f2b6 <_ZNSt7__cxx1112basic_stringIcSt11char_traitsIcESaIcEE10_M_disposeEv>
    ae26:	48 89 df             	mov    %rbx,%rdi
    ae29:	e8 12 f8 ff ff       	call   a640 <_Unwind_Resume@plt>
    ae2e:	48 89 df             	mov    %rbx,%rdi
    ae31:	e8 80 44 00 00       	call   f2b6 <_ZNSt7__cxx1112basic_stringIcSt11char_traitsIcESaIcEE10_M_disposeEv>
    ae36:	4c 89 f7             	mov    %r14,%rdi
    ae39:	e8 78 44 00 00       	call   f2b6 <_ZNSt7__cxx1112basic_stringIcSt11char_traitsIcESaIcEE10_M_disposeEv>
    ae3e:	4c 89 ef             	mov    %r13,%rdi
    ae41:	e8 70 44 00 00       	call   f2b6 <_ZNSt7__cxx1112basic_stringIcSt11char_traitsIcESaIcEE10_M_disposeEv>
    ae46:	eb c4                	jmp    ae0c <_ZN7testing8internal8FilePath12MakeFileNameERKS1_S3_iPKc.cold+0x8>
    ae48:	48 89 ef             	mov    %rbp,%rdi
    ae4b:	e8 66 44 00 00       	call   f2b6 <_ZNSt7__cxx1112basic_stringIcSt11char_traitsIcESaIcEE10_M_disposeEv>
    ae50:	eb cc                	jmp    ae1e <_ZN7testing8internal8FilePath12MakeFileNameERKS1_S3_iPKc.cold+0x1a>
    ae52:	48 89 ef             	mov    %rbp,%rdi
    ae55:	4c 8d 74 24 30       	lea    0x30(%rsp),%r14
    ae5a:	e8 57 44 00 00       	call   f2b6 <_ZNSt7__cxx1112basic_stringIcSt11char_traitsIcESaIcEE10_M_disposeEv>
    ae5f:	eb bd                	jmp    ae1e <_ZN7testing8internal8FilePath12MakeFileNameERKS1_S3_iPKc.cold+0x1a>
    ae61:	90                   	nop

000000000000ae62 <_ZN7testing8internal8FilePath22GenerateUniqueFileNameERKS1_S3_PKc.cold>:
    ae62:	48 89 ef             	mov    %rbp,%rdi
    ae65:	48 89 dd             	mov    %rbx,%rbp
    ae68:	e8 49 44 00 00       	call   f2b6 <_ZNSt7__cxx1112basic_stringIcSt11char_traitsIcESaIcEE10_M_disposeEv>
    ae6d:	4c 89 e7             	mov    %r12,%rdi
    ae70:	e8 41 44 00 00       	call   f2b6 <_ZNSt7__cxx1112basic_stringIcSt11char_traitsIcESaIcEE10_M_disposeEv>
    ae75:	48 89 ef             	mov    %rbp,%rdi
    ae78:	e8 c3 f7 ff ff       	call   a640 <_Unwind_Resume@plt>

000000000000ae7d <_ZN7testing8internal18FormatFileLocationB5cxx11EPKci.cold>:
    ae7d:	4c 89 ff             	mov    %r15,%rdi
    ae80:	e8 31 44 00 00       	call   f2b6 <_ZNSt7__cxx1112basic_stringIcSt11char_traitsIcESaIcEE10_M_disposeEv>
    ae85:	48 89 ef             	mov    %rbp,%rdi
    ae88:	e8 29 44 00 00       	call   f2b6 <_ZNSt7__cxx1112basic_stringIcSt11char_traitsIcESaIcEE10_M_disposeEv>
    ae8d:	4c 89 f7             	mov    %r14,%rdi
    ae90:	48 89 dd             	mov    %rbx,%rbp
    ae93:	e8 1e 44 00 00       	call   f2b6 <_ZNSt7__cxx1112basic_stringIcSt11char_traitsIcESaIcEE10_M_disposeEv>
    ae98:	eb 12                	jmp    aeac <_ZN7testing8internal18FormatFileLocationB5cxx11EPKci.cold+0x2f>
    ae9a:	48 89 ef             	mov    %rbp,%rdi
    ae9d:	e8 14 44 00 00       	call   f2b6 <_ZNSt7__cxx1112basic_stringIcSt11char_traitsIcESaIcEE10_M_disposeEv>
    aea2:	eb e9                	jmp    ae8d <_ZN7testing8internal18FormatFileLocationB5cxx11EPKci.cold+0x10>
    aea4:	4c 89 e7             	mov    %r12,%rdi
    aea7:	e8 0a 44 00 00       	call   f2b6 <_ZNSt7__cxx1112basic_stringIcSt11char_traitsIcESaIcEE10_M_disposeEv>
    aeac:	4c 89 ef             	mov    %r13,%rdi
    aeaf:	e8 02 44 00 00       	call   f2b6 <_ZNSt7__cxx1112basic_stringIcSt11char_traitsIcESaIcEE10_M_disposeEv>
    aeb4:	48 89 ef             	mov    %rbp,%rdi
    aeb7:	e8 84 f7 ff ff       	call   a640 <_Unwind_Resume@plt>

000000000000aebc <_ZN7testing8internal8GTestLogC2ENS0_16GTestLogSeverityEPKci.cold>:
    aebc:	4c 89 f7             	mov    %r14,%rdi
    aebf:	e8 f2 43 00 00       	call   f2b6 <_ZNSt7__cxx1112basic_stringIcSt11char_traitsIcESaIcEE10_M_disposeEv>
    aec4:	48 89 ef             	mov    %rbp,%rdi
    aec7:	e8 74 f7 ff ff       	call   a640 <_Unwind_Resume@plt>

000000000000aecc <_ZN7testing8internal6Random8GenerateEj.cold>:
    aecc:	4c 89 ef             	mov    %r13,%rdi
    aecf:	e8 ac d3 00 00       	call   18280 <_ZN7testing8internal8GTestLogD1Ev>
    aed4:	48 89 ef             	mov    %rbp,%rdi
    aed7:	e8 64 f7 ff ff       	call   a640 <_Unwind_Resume@plt>
    aedc:	4c 89 ef             	mov    %r13,%rdi
    aedf:	e8 9c d3 00 00       	call   18280 <_ZN7testing8internal8GTestLogD1Ev>
    aee4:	48 89 ef             	mov    %rbp,%rdi
    aee7:	e8 54 f7 ff ff       	call   a640 <_Unwind_Resume@plt>

000000000000aeec <_ZN7testing8internal24XmlUnitTestResultPrinterC2EPKc.cold>:
    aeec:	48 89 ef             	mov    %rbp,%rdi
    aeef:	48 89 dd             	mov    %rbx,%rbp
    aef2:	e8 89 d3 00 00       	call   18280 <_ZN7testing8internal8GTestLogD1Ev>
    aef7:	4c 89 e7             	mov    %r12,%rdi
    aefa:	e8 b7 43 00 00       	call   f2b6 <_ZNSt7__cxx1112basic_stringIcSt11char_traitsIcESaIcEE10_M_disposeEv>
    aeff:	48 89 ef             	mov    %rbp,%rdi
    af02:	e8 39 f7 ff ff       	call   a640 <_Unwind_Resume@plt>

000000000000af07 <_ZN7testing8internalL18OpenFileForWritingERKNSt7__cxx1112basic_stringIcSt11char_traitsIcESaIcEEE.cold>:
    af07:	48 89 ef             	mov    %rbp,%rdi
    af0a:	e8 a7 43 00 00       	call   f2b6 <_ZNSt7__cxx1112basic_stringIcSt11char_traitsIcESaIcEE10_M_disposeEv>
    af0f:	4c 89 e7             	mov    %r12,%rdi
    af12:	e8 29 f7 ff ff       	call   a640 <_Unwind_Resume@plt>
    af17:	4c 89 e7             	mov    %r12,%rdi
    af1a:	49 89 dc             	mov    %rbx,%r12
    af1d:	e8 5e d3 00 00       	call   18280 <_ZN7testing8internal8GTestLogD1Ev>
    af22:	4c 89 ef             	mov    %r13,%rdi
    af25:	e8 8c 43 00 00       	call   f2b6 <_ZNSt7__cxx1112basic_stringIcSt11char_traitsIcESaIcEE10_M_disposeEv>
    af2a:	48 89 ef             	mov    %rbp,%rdi
    af2d:	e8 84 43 00 00       	call   f2b6 <_ZNSt7__cxx1112basic_stringIcSt11char_traitsIcESaIcEE10_M_disposeEv>
    af32:	4c 89 e7             	mov    %r12,%rdi
    af35:	e8 06 f7 ff ff       	call   a640 <_Unwind_Resume@plt>

000000000000af3a <_ZN7testing8internal25JsonUnitTestResultPrinterC2EPKc.cold>:
    af3a:	48 89 ef             	mov    %rbp,%rdi
    af3d:	48 89 dd             	mov    %rbx,%rbp
    af40:	e8 3b d3 00 00       	call   18280 <_ZN7testing8internal8GTestLogD1Ev>
    af45:	4c 89 e7             	mov    %r12,%rdi
    af48:	e8 69 43 00 00       	call   f2b6 <_ZNSt7__cxx1112basic_stringIcSt11char_traitsIcESaIcEE10_M_disposeEv>
    af4d:	48 89 ef             	mov    %rbp,%rdi
    af50:	e8 eb f6 ff ff       	call   a640 <_Unwind_Resume@plt>
    af55:	90                   	nop

000000000000af56 <_ZN7testing8internal17StreamingListener12SocketWriter14MakeConnectionEv.cold>:
    af56:	4c 89 ef             	mov    %r13,%rdi
    af59:	e8 22 d3 00 00       	call   18280 <_ZN7testing8internal8GTestLogD1Ev>
    af5e:	48 89 ef             	mov    %rbp,%rdi
    af61:	e8 da f6 ff ff       	call   a640 <_Unwind_Resume@plt>
    af66:	4c 89 ef             	mov    %r13,%rdi
    af69:	e8 12 d3 00 00       	call   18280 <_ZN7testing8internal8GTestLogD1Ev>
    af6e:	48 89 ef             	mov    %rbp,%rdi
    af71:	e8 ca f6 ff ff       	call   a640 <_Unwind_Resume@plt>
    af76:	4c 89 ef             	mov    %r13,%rdi
    af79:	e8 02 d3 00 00       	call   18280 <_ZN7testing8internal8GTestLogD1Ev>
    af7e:	48 89 ef             	mov    %rbp,%rdi
    af81:	e8 ba f6 ff ff       	call   a640 <_Unwind_Resume@plt>

000000000000af86 <_ZN7testing8internal17GetCapturedStderrB5cxx11Ev.cold>:
    af86:	4c 89 e7             	mov    %r12,%rdi
    af89:	e8 28 43 00 00       	call   f2b6 <_ZNSt7__cxx1112basic_stringIcSt11char_traitsIcESaIcEE10_M_disposeEv>
    af8e:	48 89 ef             	mov    %rbp,%rdi
    af91:	e8 aa f6 ff ff       	call   a640 <_Unwind_Resume@plt>
    af96:	4c 89 ef             	mov    %r13,%rdi
    af99:	e8 e2 d2 00 00       	call   18280 <_ZN7testing8internal8GTestLogD1Ev>
    af9e:	48 89 ef             	mov    %rbp,%rdi
    afa1:	e8 9a f6 ff ff       	call   a640 <_Unwind_Resume@plt>

000000000000afa6 <_ZN7testing8internalL13CaptureStreamEiPKcPPNS0_14CapturedStreamE.cold>:
    afa6:	4c 89 f7             	mov    %r14,%rdi
    afa9:	e8 d2 d2 00 00       	call   18280 <_ZN7testing8internal8GTestLogD1Ev>
    afae:	4c 89 ff             	mov    %r15,%rdi
    afb1:	e8 00 43 00 00       	call   f2b6 <_ZNSt7__cxx1112basic_stringIcSt11char_traitsIcESaIcEE10_M_disposeEv>
    afb6:	48 8d 7d 08          	lea    0x8(%rbp),%rdi
    afba:	e8 f7 42 00 00       	call   f2b6 <_ZNSt7__cxx1112basic_stringIcSt11char_traitsIcESaIcEE10_M_disposeEv>
    afbf:	48 89 ef             	mov    %rbp,%rdi
    afc2:	be 28 00 00 00       	mov    $0x28,%esi
    afc7:	e8 64 f1 ff ff       	call   a130 <_ZdlPvm@plt>
    afcc:	4c 89 e7             	mov    %r12,%rdi
    afcf:	e8 6c f6 ff ff       	call   a640 <_Unwind_Resume@plt>
    afd4:	4c 89 f7             	mov    %r14,%rdi
    afd7:	e8 a4 d2 00 00       	call   18280 <_ZN7testing8internal8GTestLogD1Ev>
    afdc:	48 89 ef             	mov    %rbp,%rdi
    afdf:	e8 5c f6 ff ff       	call   a640 <_Unwind_Resume@plt>

000000000000afe4 <_ZN7testing8internal34TypeParameterizedTestSuiteRegistry21RegisterInstantiationEPKc.cold>:
    afe4:	4c 89 e7             	mov    %r12,%rdi
    afe7:	e8 94 d2 00 00       	call   18280 <_ZN7testing8internal8GTestLogD1Ev>
    afec:	48 89 ef             	mov    %rbp,%rdi
    afef:	e8 4c f6 ff ff       	call   a640 <_Unwind_Resume@plt>

000000000000aff4 <_ZN7testing8internal18ParseNaturalNumberIiEEbRKNSt7__cxx1112basic_stringIcSt11char_traitsIcESaIcEEEPT_.isra.0.cold>:
    aff4:	4c 89 ef             	mov    %r13,%rdi
    aff7:	e8 84 d2 00 00       	call   18280 <_ZN7testing8internal8GTestLogD1Ev>
    affc:	48 89 ef             	mov    %rbp,%rdi
    afff:	e8 3c f6 ff ff       	call   a640 <_Unwind_Resume@plt>

000000000000b004 <_ZN7testing8internal17GetCapturedStdoutB5cxx11Ev.cold>:
    b004:	4c 89 e7             	mov    %r12,%rdi
    b007:	e8 aa 42 00 00       	call   f2b6 <_ZNSt7__cxx1112basic_stringIcSt11char_traitsIcESaIcEE10_M_disposeEv>
    b00c:	48 89 ef             	mov    %rbp,%rdi
    b00f:	e8 2c f6 ff ff       	call   a640 <_Unwind_Resume@plt>
    b014:	4c 89 ef             	mov    %r13,%rdi
    b017:	e8 64 d2 00 00       	call   18280 <_ZN7testing8internal8GTestLogD1Ev>
    b01c:	48 89 ef             	mov    %rbp,%rdi
    b01f:	e8 1c f6 ff ff       	call   a640 <_Unwind_Resume@plt>

000000000000b024 <_ZN7testing10TestResultC2Ev.cold>:
    b024:	4c 89 ef             	mov    %r13,%rdi
    b027:	e8 54 d2 00 00       	call   18280 <_ZN7testing8internal8GTestLogD1Ev>
    b02c:	48 89 ef             	mov    %rbp,%rdi
    b02f:	e8 0c f6 ff ff       	call   a640 <_Unwind_Resume@plt>

000000000000b034 <_ZN7testing8TestInfoC2ERKNSt7__cxx1112basic_stringIcSt11char_traitsIcESaIcEEES8_PKcSA_NS_8internal12CodeLocationEPKvPNSB_15TestFactoryBaseE.cold>:
    b034:	be 20 00 00 00       	mov    $0x20,%esi
    b039:	4c 89 ef             	mov    %r13,%rdi
    b03c:	e8 ef f0 ff ff       	call   a130 <_ZdlPvm@plt>
    b041:	48 8b 7d 40          	mov    0x40(%rbp),%rdi
    b045:	48 85 ff             	test   %rdi,%rdi
    b048:	74 14                	je     b05e <_ZN7testing8TestInfoC2ERKNSt7__cxx1112basic_stringIcSt11char_traitsIcESaIcEEES8_PKcSA_NS_8internal12CodeLocationEPKvPNSB_15TestFactoryBaseE.cold+0x2a>
    b04a:	e8 e1 84 00 00       	call   13530 <_ZNKSt14default_deleteIKNSt7__cxx1112basic_stringIcSt11char_traitsIcESaIcEEEEclEPS6_.part.0>
    b04f:	eb 0d                	jmp    b05e <_ZN7testing8TestInfoC2ERKNSt7__cxx1112basic_stringIcSt11char_traitsIcESaIcEEES8_PKcSA_NS_8internal12CodeLocationEPKvPNSB_15TestFactoryBaseE.cold+0x2a>
    b051:	be 20 00 00 00       	mov    $0x20,%esi
    b056:	4c 89 ff             	mov    %r15,%rdi
    b059:	e8 d2 f0 ff ff       	call   a130 <_ZdlPvm@plt>
    b05e:	4c 89 f7             	mov    %r14,%rdi
    b061:	e8 50 42 00 00       	call   f2b6 <_ZNSt7__cxx1112basic_stringIcSt11char_traitsIcESaIcEE10_M_disposeEv>
    b066:	48 89 ef             	mov    %rbp,%rdi
    b069:	e8 48 42 00 00       	call   f2b6 <_ZNSt7__cxx1112basic_stringIcSt11char_traitsIcESaIcEE10_M_disposeEv>
    b06e:	48 89 df             	mov    %rbx,%rdi
    b071:	e8 ca f5 ff ff       	call   a640 <_Unwind_Resume@plt>
    b076:	4c 89 e7             	mov    %r12,%rdi
    b079:	e8 38 42 00 00       	call   f2b6 <_ZNSt7__cxx1112basic_stringIcSt11char_traitsIcESaIcEE10_M_disposeEv>
    b07e:	48 8b 7d 48          	mov    0x48(%rbp),%rdi
    b082:	48 85 ff             	test   %rdi,%rdi
    b085:	74 ba                	je     b041 <_ZN7testing8TestInfoC2ERKNSt7__cxx1112basic_stringIcSt11char_traitsIcESaIcEEES8_PKcSA_NS_8internal12CodeLocationEPKvPNSB_15TestFactoryBaseE.cold+0xd>
    b087:	e8 a4 84 00 00       	call   13530 <_ZNKSt14default_deleteIKNSt7__cxx1112basic_stringIcSt11char_traitsIcESaIcEEEEclEPS6_.part.0>
    b08c:	eb b3                	jmp    b041 <_ZN7testing8TestInfoC2ERKNSt7__cxx1112basic_stringIcSt11char_traitsIcESaIcEEES8_PKcSA_NS_8internal12CodeLocationEPKvPNSB_15TestFactoryBaseE.cold+0xd>

000000000000b08e <_ZN7testing8internal12UnitTestImpl31GetGlobalTestPartResultReporterEv.cold>:
    b08e:	4c 89 f7             	mov    %r14,%rdi
    b091:	e8 ea d1 00 00       	call   18280 <_ZN7testing8internal8GTestLogD1Ev>
    b096:	48 89 ef             	mov    %rbp,%rdi
    b099:	e8 a2 f5 ff ff       	call   a640 <_Unwind_Resume@plt>

000000000000b09e <_ZN7testing8internal12UnitTestImpl31SetGlobalTestPartResultReporterEPNS_31TestPartResultReporterInterfaceE.cold>:
    b09e:	4c 89 ff             	mov    %r15,%rdi
    b0a1:	e8 da d1 00 00       	call   18280 <_ZN7testing8internal8GTestLogD1Ev>
    b0a6:	48 89 ef             	mov    %rbp,%rdi
    b0a9:	e8 92 f5 ff ff       	call   a640 <_Unwind_Resume@plt>

000000000000b0ae <_ZNK7testing8UnitTest17current_test_infoEv.cold>:
    b0ae:	4c 89 f7             	mov    %r14,%rdi
    b0b1:	e8 ca d1 00 00       	call   18280 <_ZN7testing8internal8GTestLogD1Ev>
    b0b6:	48 89 ef             	mov    %rbp,%rdi
    b0b9:	e8 82 f5 ff ff       	call   a640 <_Unwind_Resume@plt>

000000000000b0be <_ZNK7testing8UnitTest17current_test_caseEv.cold>:
    b0be:	4c 89 f7             	mov    %r14,%rdi
    b0c1:	e8 ba d1 00 00       	call   18280 <_ZN7testing8internal8GTestLogD1Ev>
    b0c6:	48 89 ef             	mov    %rbp,%rdi
    b0c9:	e8 72 f5 ff ff       	call   a640 <_Unwind_Resume@plt>

000000000000b0ce <_ZNK7testing8UnitTest18current_test_suiteEv.cold>:
    b0ce:	4c 89 f7             	mov    %r14,%rdi
    b0d1:	e8 aa d1 00 00       	call   18280 <_ZN7testing8internal8GTestLogD1Ev>
    b0d6:	48 89 ef             	mov    %rbp,%rdi
    b0d9:	e8 62 f5 ff ff       	call   a640 <_Unwind_Resume@plt>

000000000000b0de <_ZN7testinglsERSoRKNS_14TestPartResultE.cold>:
    b0de:	4c 89 ef             	mov    %r13,%rdi
    b0e1:	e8 d0 41 00 00       	call   f2b6 <_ZNSt7__cxx1112basic_stringIcSt11char_traitsIcESaIcEE10_M_disposeEv>
    b0e6:	48 89 ef             	mov    %rbp,%rdi
    b0e9:	e8 52 f5 ff ff       	call   a640 <_Unwind_Resume@plt>

000000000000b0ee <_ZN7testing8internalL27PrintTestPartResultToStringERKNS_14TestPartResultE.cold>:
    b0ee:	4c 89 ef             	mov    %r13,%rdi
    b0f1:	e8 c0 41 00 00       	call   f2b6 <_ZNSt7__cxx1112basic_stringIcSt11char_traitsIcESaIcEE10_M_disposeEv>
    b0f6:	48 89 ef             	mov    %rbp,%rdi
    b0f9:	e8 f2 00 03 00       	call   3b1f0 <_ZNSt10unique_ptrINSt7__cxx1118basic_stringstreamIcSt11char_traitsIcESaIcEEESt14default_deleteIS5_EED1Ev>
    b0fe:	4c 89 e7             	mov    %r12,%rdi
    b101:	e8 3a f5 ff ff       	call   a640 <_Unwind_Resume@plt>

000000000000b106 <_ZN7testing8internal26GoogleTestFailureExceptionC2ERKNS_14TestPartResultE.cold>:
    b106:	48 89 ef             	mov    %rbp,%rdi
    b109:	e8 a8 41 00 00       	call   f2b6 <_ZNSt7__cxx1112basic_stringIcSt11char_traitsIcESaIcEE10_M_disposeEv>
    b10e:	4c 89 e7             	mov    %r12,%rdi
    b111:	e8 2a f5 ff ff       	call   a640 <_Unwind_Resume@plt>

000000000000b116 <_ZN7testing8internal27PrettyUnitTestResultPrinter16OnTestPartResultERKNS_14TestPartResultE.cold>:
    b116:	48 89 ef             	mov    %rbp,%rdi
    b119:	e8 98 41 00 00       	call   f2b6 <_ZNSt7__cxx1112basic_stringIcSt11char_traitsIcESaIcEE10_M_disposeEv>
    b11e:	4c 89 e7             	mov    %r12,%rdi
    b121:	e8 1a f5 ff ff       	call   a640 <_Unwind_Resume@plt>

000000000000b126 <_ZN7testing8internal26ReportInvalidTestSuiteTypeEPKcNS0_12CodeLocationE.cold>:
    b126:	4c 89 ff             	mov    %r15,%rdi
    b129:	e8 88 41 00 00       	call   f2b6 <_ZNSt7__cxx1112basic_stringIcSt11char_traitsIcESaIcEE10_M_disposeEv>
    b12e:	4c 89 f7             	mov    %r14,%rdi
    b131:	e8 80 41 00 00       	call   f2b6 <_ZNSt7__cxx1112basic_stringIcSt11char_traitsIcESaIcEE10_M_disposeEv>
    b136:	4c 89 ef             	mov    %r13,%rdi
    b139:	e8 42 d1 00 00       	call   18280 <_ZN7testing8internal8GTestLogD1Ev>
    b13e:	4c 89 e7             	mov    %r12,%rdi
    b141:	e8 aa 00 03 00       	call   3b1f0 <_ZNSt10unique_ptrINSt7__cxx1118basic_stringstreamIcSt11char_traitsIcESaIcEEESt14default_deleteIS5_EED1Ev>
    b146:	48 89 ef             	mov    %rbp,%rdi
    b149:	e8 f2 f4 ff ff       	call   a640 <_Unwind_Resume@plt>

000000000000b14e <_ZN7testing8internal27PrettyUnitTestResultPrinter9OnTestEndERKNS_8TestInfoE.cold>:
    b14e:	48 89 ef             	mov    %rbp,%rdi
    b151:	e8 60 41 00 00       	call   f2b6 <_ZNSt7__cxx1112basic_stringIcSt11char_traitsIcESaIcEE10_M_disposeEv>
    b156:	4c 89 e7             	mov    %r12,%rdi
    b159:	e8 e2 f4 ff ff       	call   a640 <_Unwind_Resume@plt>

000000000000b15e <_ZN7testing8internal27PrettyUnitTestResultPrinter13OnTestCaseEndERKNS_9TestSuiteE.cold>:
    b15e:	4c 89 e7             	mov    %r12,%rdi
    b161:	49 89 dc             	mov    %rbx,%r12
    b164:	e8 4d 41 00 00       	call   f2b6 <_ZNSt7__cxx1112basic_stringIcSt11char_traitsIcESaIcEE10_M_disposeEv>
    b169:	48 89 ef             	mov    %rbp,%rdi
    b16c:	e8 45 41 00 00       	call   f2b6 <_ZNSt7__cxx1112basic_stringIcSt11char_traitsIcESaIcEE10_M_disposeEv>
    b171:	4c 89 e7             	mov    %r12,%rdi
    b174:	e8 c7 f4 ff ff       	call   a640 <_Unwind_Resume@plt>
    b179:	90                   	nop

000000000000b17a <_ZN7testing8internal27PrettyUnitTestResultPrinter18OnTestIterationEndERKNS_8UnitTestEi.cold>:
    b17a:	4c 89 e7             	mov    %r12,%rdi
    b17d:	e8 34 41 00 00       	call   f2b6 <_ZNSt7__cxx1112basic_stringIcSt11char_traitsIcESaIcEE10_M_disposeEv>
    b182:	4c 89 ef             	mov    %r13,%rdi
    b185:	e8 2c 41 00 00       	call   f2b6 <_ZNSt7__cxx1112basic_stringIcSt11char_traitsIcESaIcEE10_M_disposeEv>
    b18a:	48 89 ef             	mov    %rbp,%rdi
    b18d:	e8 ae f4 ff ff       	call   a640 <_Unwind_Resume@plt>

000000000000b192 <_ZN7testing8internal26BriefUnitTestResultPrinter9OnTestEndERKNS_8TestInfoE.cold>:
    b192:	48 89 ef             	mov    %rbp,%rdi
    b195:	e8 1c 41 00 00       	call   f2b6 <_ZNSt7__cxx1112basic_stringIcSt11char_traitsIcESaIcEE10_M_disposeEv>
    b19a:	4c 89 e7             	mov    %r12,%rdi
    b19d:	e8 9e f4 ff ff       	call   a640 <_Unwind_Resume@plt>

000000000000b1a2 <_ZN7testing8internal26BriefUnitTestResultPrinter18OnTestIterationEndERKNS_8UnitTestEi.cold>:
    b1a2:	4c 89 ff             	mov    %r15,%rdi
    b1a5:	e8 0c 41 00 00       	call   f2b6 <_ZNSt7__cxx1112basic_stringIcSt11char_traitsIcESaIcEE10_M_disposeEv>
    b1aa:	4c 89 e7             	mov    %r12,%rdi
    b1ad:	e8 04 41 00 00       	call   f2b6 <_ZNSt7__cxx1112basic_stringIcSt11char_traitsIcESaIcEE10_M_disposeEv>
    b1b2:	48 89 ef             	mov    %rbp,%rdi
    b1b5:	e8 86 f4 ff ff       	call   a640 <_Unwind_Resume@plt>

000000000000b1ba <_ZN7testing8internal18SetInjectableArgvsERKSt6vectorINSt7__cxx1112basic_stringIcSt11char_traitsIcESaIcEEESaIS7_EE.cold>:
    b1ba:	90                   	nop
    b1bb:	f3 0f 1e fa          	endbr64 
    b1bf:	48 89 c5             	mov    %rax,%rbp
    b1c2:	e8 f9 f3 ff ff       	call   a5c0 <__cxa_end_catch@plt>
    b1c7:	4c 89 ff             	mov    %r15,%rdi
    b1ca:	e8 c1 29 03 00       	call   3db90 <_ZNSt12_Vector_baseINSt7__cxx1112basic_stringIcSt11char_traitsIcESaIcEEESaIS5_EED1Ev>
    b1cf:	4c 89 ff             	mov    %r15,%rdi
    b1d2:	be 18 00 00 00       	mov    $0x18,%esi
    b1d7:	e8 54 ef ff ff       	call   a130 <_ZdlPvm@plt>
    b1dc:	48 89 ef             	mov    %rbp,%rdi
    b1df:	e8 5c f4 ff ff       	call   a640 <_Unwind_Resume@plt>
    b1e4:	e8 c7 eb ff ff       	call   9db0 <__cxa_begin_catch@plt>
    b1e9:	48 39 5c 24 08       	cmp    %rbx,0x8(%rsp)
    b1ee:	74 1b                	je     b20b <_ZN7testing8internal18SetInjectableArgvsERKSt6vectorINSt7__cxx1112basic_stringIcSt11char_traitsIcESaIcEEESaIS7_EE.cold+0x51>
    b1f0:	4c 8b 74 24 08       	mov    0x8(%rsp),%r14
    b1f5:	4c 89 f7             	mov    %r14,%rdi
    b1f8:	e8 b9 40 00 00       	call   f2b6 <_ZNSt7__cxx1112basic_stringIcSt11char_traitsIcESaIcEE10_M_disposeEv>
    b1fd:	4c 89 f0             	mov    %r14,%rax
    b200:	48 83 c0 20          	add    $0x20,%rax
    b204:	48 89 44 24 08       	mov    %rax,0x8(%rsp)
    b209:	eb de                	jmp    b1e9 <_ZN7testing8internal18SetInjectableArgvsERKSt6vectorINSt7__cxx1112basic_stringIcSt11char_traitsIcESaIcEEESaIS7_EE.cold+0x2f>
    b20b:	e8 70 f2 ff ff       	call   a480 <__cxa_rethrow@plt>

000000000000b210 <_ZN7testing8internal8GetArgvsB5cxx11Ev.cold>:
    b210:	e8 9b eb ff ff       	call   9db0 <__cxa_begin_catch@plt>
    b215:	48 39 5c 24 08       	cmp    %rbx,0x8(%rsp)
    b21a:	74 1b                	je     b237 <_ZN7testing8internal8GetArgvsB5cxx11Ev.cold+0x27>
    b21c:	4c 8b 7c 24 08       	mov    0x8(%rsp),%r15
    b221:	4c 89 ff             	mov    %r15,%rdi
    b224:	e8 8d 40 00 00       	call   f2b6 <_ZNSt7__cxx1112basic_stringIcSt11char_traitsIcESaIcEE10_M_disposeEv>
    b229:	4c 89 f8             	mov    %r15,%rax
    b22c:	48 83 c0 20          	add    $0x20,%rax
    b230:	48 89 44 24 08       	mov    %rax,0x8(%rsp)
    b235:	eb de                	jmp    b215 <_ZN7testing8internal8GetArgvsB5cxx11Ev.cold+0x5>
    b237:	e8 44 f2 ff ff       	call   a480 <__cxa_rethrow@plt>
    b23c:	f3 0f 1e fa          	endbr64 
    b240:	48 89 c5             	mov    %rax,%rbp
    b243:	e8 78 f3 ff ff       	call   a5c0 <__cxa_end_catch@plt>
    b248:	4c 89 f7             	mov    %r14,%rdi
    b24b:	e8 40 29 03 00       	call   3db90 <_ZNSt12_Vector_baseINSt7__cxx1112basic_stringIcSt11char_traitsIcESaIcEEESaIS5_EED1Ev>
    b250:	48 89 ef             	mov    %rbp,%rdi
    b253:	e8 e8 f3 ff ff       	call   a640 <_Unwind_Resume@plt>

000000000000b258 <_ZN7testing8internal24GetCurrentExecutableNameEv.cold>:
    b258:	48 89 ef             	mov    %rbp,%rdi
    b25b:	e8 56 40 00 00       	call   f2b6 <_ZNSt7__cxx1112basic_stringIcSt11char_traitsIcESaIcEE10_M_disposeEv>
    b260:	4c 89 ff             	mov    %r15,%rdi
    b263:	e8 78 f1 02 00       	call   3a3e0 <_ZNSt6vectorINSt7__cxx1112basic_stringIcSt11char_traitsIcESaIcEEESaIS5_EED1Ev>
    b268:	4c 89 ef             	mov    %r13,%rdi
    b26b:	e8 46 40 00 00       	call   f2b6 <_ZNSt7__cxx1112basic_stringIcSt11char_traitsIcESaIcEE10_M_disposeEv>
    b270:	48 89 df             	mov    %rbx,%rdi
    b273:	e8 c8 f3 ff ff       	call   a640 <_Unwind_Resume@plt>
    b278:	48 89 ef             	mov    %rbp,%rdi
    b27b:	e8 36 40 00 00       	call   f2b6 <_ZNSt7__cxx1112basic_stringIcSt11char_traitsIcESaIcEE10_M_disposeEv>
    b280:	eb de                	jmp    b260 <_ZN7testing8internal24GetCurrentExecutableNameEv.cold+0x8>

000000000000b282 <_ZN7testing8internal18GetInjectableArgvsB5cxx11Ev.cold>:
    b282:	e8 29 eb ff ff       	call   9db0 <__cxa_begin_catch@plt>
    b287:	48 39 5c 24 08       	cmp    %rbx,0x8(%rsp)
    b28c:	74 1b                	je     b2a9 <_ZN7testing8internal18GetInjectableArgvsB5cxx11Ev.cold+0x27>
    b28e:	4c 8b 7c 24 08       	mov    0x8(%rsp),%r15
    b293:	4c 89 ff             	mov    %r15,%rdi
    b296:	e8 1b 40 00 00       	call   f2b6 <_ZNSt7__cxx1112basic_stringIcSt11char_traitsIcESaIcEE10_M_disposeEv>
    b29b:	4c 89 f8             	mov    %r15,%rax
    b29e:	48 83 c0 20          	add    $0x20,%rax
    b2a2:	48 89 44 24 08       	mov    %rax,0x8(%rsp)
    b2a7:	eb de                	jmp    b287 <_ZN7testing8internal18GetInjectableArgvsB5cxx11Ev.cold+0x5>
    b2a9:	e8 d2 f1 ff ff       	call   a480 <__cxa_rethrow@plt>
    b2ae:	f3 0f 1e fa          	endbr64 
    b2b2:	48 89 c5             	mov    %rax,%rbp
    b2b5:	e8 06 f3 ff ff       	call   a5c0 <__cxa_end_catch@plt>
    b2ba:	4c 89 f7             	mov    %r14,%rdi
    b2bd:	e8 ce 28 03 00       	call   3db90 <_ZNSt12_Vector_baseINSt7__cxx1112basic_stringIcSt11char_traitsIcESaIcEEESaIS5_EED1Ev>
    b2c2:	48 89 ef             	mov    %rbp,%rdi
    b2c5:	e8 76 f3 ff ff       	call   a640 <_Unwind_Resume@plt>

000000000000b2ca <_ZN7testingL37GetReservedOutputAttributesForElementERKNSt7__cxx1112basic_stringIcSt11char_traitsIcESaIcEEE.cold>:
    b2ca:	90                   	nop
    b2cb:	f3 0f 1e fa          	endbr64 
    b2cf:	48 89 c5             	mov    %rax,%rbp
    b2d2:	e8 e9 f2 ff ff       	call   a5c0 <__cxa_end_catch@plt>
    b2d7:	4c 89 ef             	mov    %r13,%rdi
    b2da:	e8 b1 28 03 00       	call   3db90 <_ZNSt12_Vector_baseINSt7__cxx1112basic_stringIcSt11char_traitsIcESaIcEEESaIS5_EED1Ev>
    b2df:	48 89 ef             	mov    %rbp,%rdi
    b2e2:	e8 59 f3 ff ff       	call   a640 <_Unwind_Resume@plt>
    b2e7:	e8 c4 ea ff ff       	call   9db0 <__cxa_begin_catch@plt>
    b2ec:	4c 39 fb             	cmp    %r15,%rbx
    b2ef:	74 26                	je     b317 <_ZN7testingL37GetReservedOutputAttributesForElementERKNSt7__cxx1112basic_stringIcSt11char_traitsIcESaIcEEE.cold+0x4d>
    b2f1:	4c 89 ff             	mov    %r15,%rdi
    b2f4:	49 83 c7 20          	add    $0x20,%r15
    b2f8:	e8 b9 3f 00 00       	call   f2b6 <_ZNSt7__cxx1112basic_stringIcSt11char_traitsIcESaIcEE10_M_disposeEv>
    b2fd:	eb ed                	jmp    b2ec <_ZN7testingL37GetReservedOutputAttributesForElementERKNSt7__cxx1112basic_stringIcSt11char_traitsIcESaIcEEE.cold+0x22>
    b2ff:	e8 ac ea ff ff       	call   9db0 <__cxa_begin_catch@plt>
    b304:	49 39 df             	cmp    %rbx,%r15
    b307:	74 13                	je     b31c <_ZN7testingL37GetReservedOutputAttributesForElementERKNSt7__cxx1112basic_stringIcSt11char_traitsIcESaIcEEE.cold+0x52>
    b309:	4c 89 ff             	mov    %r15,%rdi
    b30c:	49 83 c7 20          	add    $0x20,%r15
    b310:	e8 a1 3f 00 00       	call   f2b6 <_ZNSt7__cxx1112basic_stringIcSt11char_traitsIcESaIcEE10_M_disposeEv>
    b315:	eb ed                	jmp    b304 <_ZN7testingL37GetReservedOutputAttributesForElementERKNSt7__cxx1112basic_stringIcSt11char_traitsIcESaIcEEE.cold+0x3a>
    b317:	e8 64 f1 ff ff       	call   a480 <__cxa_rethrow@plt>
    b31c:	e8 5f f1 ff ff       	call   a480 <__cxa_rethrow@plt>
    b321:	f3 0f 1e fa          	endbr64 
    b325:	48 89 c5             	mov    %rax,%rbp
    b328:	e8 93 f2 ff ff       	call   a5c0 <__cxa_end_catch@plt>
    b32d:	4c 89 ef             	mov    %r13,%rdi
    b330:	e8 5b 28 03 00       	call   3db90 <_ZNSt12_Vector_baseINSt7__cxx1112basic_stringIcSt11char_traitsIcESaIcEEESaIS5_EED1Ev>
    b335:	48 89 ef             	mov    %rbp,%rdi
    b338:	e8 03 f3 ff ff       	call   a640 <_Unwind_Resume@plt>
    b33d:	e8 6e ea ff ff       	call   9db0 <__cxa_begin_catch@plt>
    b342:	4c 39 fb             	cmp    %r15,%rbx
    b345:	74 2a                	je     b371 <_ZN7testingL37GetReservedOutputAttributesForElementERKNSt7__cxx1112basic_stringIcSt11char_traitsIcESaIcEEE.cold+0xa7>
    b347:	4c 89 ff             	mov    %r15,%rdi
    b34a:	49 83 c7 20          	add    $0x20,%r15
    b34e:	e8 63 3f 00 00       	call   f2b6 <_ZNSt7__cxx1112basic_stringIcSt11char_traitsIcESaIcEE10_M_disposeEv>
    b353:	eb ed                	jmp    b342 <_ZN7testingL37GetReservedOutputAttributesForElementERKNSt7__cxx1112basic_stringIcSt11char_traitsIcESaIcEEE.cold+0x78>
    b355:	f3 0f 1e fa          	endbr64 
    b359:	48 89 c5             	mov    %rax,%rbp
    b35c:	e8 5f f2 ff ff       	call   a5c0 <__cxa_end_catch@plt>
    b361:	4c 89 ef             	mov    %r13,%rdi
    b364:	e8 27 28 03 00       	call   3db90 <_ZNSt12_Vector_baseINSt7__cxx1112basic_stringIcSt11char_traitsIcESaIcEEESaIS5_EED1Ev>
    b369:	48 89 ef             	mov    %rbp,%rdi
    b36c:	e8 cf f2 ff ff       	call   a640 <_Unwind_Resume@plt>
    b371:	e8 0a f1 ff ff       	call   a480 <__cxa_rethrow@plt>
    b376:	48 89 ef             	mov    %rbp,%rdi
    b379:	e8 02 cf 00 00       	call   18280 <_ZN7testing8internal8GTestLogD1Ev>
    b37e:	4c 89 e7             	mov    %r12,%rdi
    b381:	e8 ba f2 ff ff       	call   a640 <_Unwind_Resume@plt>

000000000000b386 <_ZN7testing8internal6String15FormatIntWidthNB5cxx11Eii.cold>:
    b386:	4c 89 e7             	mov    %r12,%rdi
    b389:	e8 28 3f 00 00       	call   f2b6 <_ZNSt7__cxx1112basic_stringIcSt11char_traitsIcESaIcEE10_M_disposeEv>
    b38e:	4c 89 ff             	mov    %r15,%rdi
    b391:	e8 ea eb ff ff       	call   9f80 <_ZNSt7__cxx1118basic_stringstreamIcSt11char_traitsIcESaIcEED1Ev@plt>
    b396:	48 89 ef             	mov    %rbp,%rdi
    b399:	e8 a2 f2 ff ff       	call   a640 <_Unwind_Resume@plt>

000000000000b39e <_ZN7testing8internalL32FormatEpochTimeInMillisAsRFC3339El.cold>:
    b39e:	48 89 df             	mov    %rbx,%rdi
    b3a1:	4c 89 e3             	mov    %r12,%rbx
    b3a4:	e8 0d 3f 00 00       	call   f2b6 <_ZNSt7__cxx1112basic_stringIcSt11char_traitsIcESaIcEE10_M_disposeEv>
    b3a9:	4c 89 ff             	mov    %r15,%rdi
    b3ac:	e8 05 3f 00 00       	call   f2b6 <_ZNSt7__cxx1112basic_stringIcSt11char_traitsIcESaIcEE10_M_disposeEv>
    b3b1:	4c 89 f7             	mov    %r14,%rdi
    b3b4:	e8 fd 3e 00 00       	call   f2b6 <_ZNSt7__cxx1112basic_stringIcSt11char_traitsIcESaIcEE10_M_disposeEv>
    b3b9:	4c 89 ef             	mov    %r13,%rdi
    b3bc:	e8 f5 3e 00 00       	call   f2b6 <_ZNSt7__cxx1112basic_stringIcSt11char_traitsIcESaIcEE10_M_disposeEv>
    b3c1:	48 89 ef             	mov    %rbp,%rdi
    b3c4:	48 89 dd             	mov    %rbx,%rbp
    b3c7:	e8 ea 3e 00 00       	call   f2b6 <_ZNSt7__cxx1112basic_stringIcSt11char_traitsIcESaIcEE10_M_disposeEv>
    b3cc:	48 8b 7c 24 18       	mov    0x18(%rsp),%rdi
    b3d1:	e8 e0 3e 00 00       	call   f2b6 <_ZNSt7__cxx1112basic_stringIcSt11char_traitsIcESaIcEE10_M_disposeEv>
    b3d6:	48 8b 7c 24 50       	mov    0x50(%rsp),%rdi
    b3db:	e8 d6 3e 00 00       	call   f2b6 <_ZNSt7__cxx1112basic_stringIcSt11char_traitsIcESaIcEE10_M_disposeEv>
    b3e0:	48 8b 7c 24 30       	mov    0x30(%rsp),%rdi
    b3e5:	e8 cc 3e 00 00       	call   f2b6 <_ZNSt7__cxx1112basic_stringIcSt11char_traitsIcESaIcEE10_M_disposeEv>
    b3ea:	48 8b 7c 24 20       	mov    0x20(%rsp),%rdi
    b3ef:	e8 c2 3e 00 00       	call   f2b6 <_ZNSt7__cxx1112basic_stringIcSt11char_traitsIcESaIcEE10_M_disposeEv>
    b3f4:	48 8b 7c 24 48       	mov    0x48(%rsp),%rdi
    b3f9:	e8 b8 3e 00 00       	call   f2b6 <_ZNSt7__cxx1112basic_stringIcSt11char_traitsIcESaIcEE10_M_disposeEv>
    b3fe:	48 8b 7c 24 38       	mov    0x38(%rsp),%rdi
    b403:	e8 ae 3e 00 00       	call   f2b6 <_ZNSt7__cxx1112basic_stringIcSt11char_traitsIcESaIcEE10_M_disposeEv>
    b408:	48 8b 7c 24 10       	mov    0x10(%rsp),%rdi
    b40d:	e8 a4 3e 00 00       	call   f2b6 <_ZNSt7__cxx1112basic_stringIcSt11char_traitsIcESaIcEE10_M_disposeEv>
    b412:	48 8b 7c 24 40       	mov    0x40(%rsp),%rdi
    b417:	e8 9a 3e 00 00       	call   f2b6 <_ZNSt7__cxx1112basic_stringIcSt11char_traitsIcESaIcEE10_M_disposeEv>
    b41c:	48 8b 7c 24 28       	mov    0x28(%rsp),%rdi
    b421:	e8 90 3e 00 00       	call   f2b6 <_ZNSt7__cxx1112basic_stringIcSt11char_traitsIcESaIcEE10_M_disposeEv>
    b426:	48 8b 7c 24 58       	mov    0x58(%rsp),%rdi
    b42b:	e8 86 3e 00 00       	call   f2b6 <_ZNSt7__cxx1112basic_stringIcSt11char_traitsIcESaIcEE10_M_disposeEv>
    b430:	48 8b 7c 24 08       	mov    0x8(%rsp),%rdi
    b435:	e8 7c 3e 00 00       	call   f2b6 <_ZNSt7__cxx1112basic_stringIcSt11char_traitsIcESaIcEE10_M_disposeEv>
    b43a:	48 89 ef             	mov    %rbp,%rdi
    b43d:	e8 fe f1 ff ff       	call   a640 <_Unwind_Resume@plt>

000000000000b442 <_ZN7testing8internal32FormatEpochTimeInMillisAsIso8601B5cxx11El.cold>:
    b442:	48 89 df             	mov    %rbx,%rdi
    b445:	4c 89 e3             	mov    %r12,%rbx
    b448:	e8 69 3e 00 00       	call   f2b6 <_ZNSt7__cxx1112basic_stringIcSt11char_traitsIcESaIcEE10_M_disposeEv>
    b44d:	4c 89 ff             	mov    %r15,%rdi
    b450:	e8 61 3e 00 00       	call   f2b6 <_ZNSt7__cxx1112basic_stringIcSt11char_traitsIcESaIcEE10_M_disposeEv>
    b455:	4c 89 f7             	mov    %r14,%rdi
    b458:	e8 59 3e 00 00       	call   f2b6 <_ZNSt7__cxx1112basic_stringIcSt11char_traitsIcESaIcEE10_M_disposeEv>
    b45d:	4c 89 ef             	mov    %r13,%rdi
    b460:	e8 51 3e 00 00       	call   f2b6 <_ZNSt7__cxx1112basic_stringIcSt11char_traitsIcESaIcEE10_M_disposeEv>
    b465:	48 89 ef             	mov    %rbp,%rdi
    b468:	48 89 dd             	mov    %rbx,%rbp
    b46b:	e8 46 3e 00 00       	call   f2b6 <_ZNSt7__cxx1112basic_stringIcSt11char_traitsIcESaIcEE10_M_disposeEv>
    b470:	48 8b 7c 24 38       	mov    0x38(%rsp),%rdi
    b475:	e8 3c 3e 00 00       	call   f2b6 <_ZNSt7__cxx1112basic_stringIcSt11char_traitsIcESaIcEE10_M_disposeEv>
    b47a:	48 8b 7c 24 68       	mov    0x68(%rsp),%rdi
    b47f:	e8 32 3e 00 00       	call   f2b6 <_ZNSt7__cxx1112basic_stringIcSt11char_traitsIcESaIcEE10_M_disposeEv>
    b484:	48 8b 7c 24 58       	mov    0x58(%rsp),%rdi
    b489:	e8 28 3e 00 00       	call   f2b6 <_ZNSt7__cxx1112basic_stringIcSt11char_traitsIcESaIcEE10_M_disposeEv>
    b48e:	48 8b 7c 24 40       	mov    0x40(%rsp),%rdi
    b493:	e8 1e 3e 00 00       	call   f2b6 <_ZNSt7__cxx1112basic_stringIcSt11char_traitsIcESaIcEE10_M_disposeEv>
    b498:	48 8b 7c 24 28       	mov    0x28(%rsp),%rdi
    b49d:	e8 14 3e 00 00       	call   f2b6 <_ZNSt7__cxx1112basic_stringIcSt11char_traitsIcESaIcEE10_M_disposeEv>
    b4a2:	48 8b 7c 24 60       	mov    0x60(%rsp),%rdi
    b4a7:	e8 0a 3e 00 00       	call   f2b6 <_ZNSt7__cxx1112basic_stringIcSt11char_traitsIcESaIcEE10_M_disposeEv>
    b4ac:	48 8b 7c 24 48       	mov    0x48(%rsp),%rdi
    b4b1:	e8 00 3e 00 00       	call   f2b6 <_ZNSt7__cxx1112basic_stringIcSt11char_traitsIcESaIcEE10_M_disposeEv>
    b4b6:	48 8b 7c 24 18       	mov    0x18(%rsp),%rdi
    b4bb:	e8 f6 3d 00 00       	call   f2b6 <_ZNSt7__cxx1112basic_stringIcSt11char_traitsIcESaIcEE10_M_disposeEv>
    b4c0:	48 8b 7c 24 08       	mov    0x8(%rsp),%rdi
    b4c5:	e8 ec 3d 00 00       	call   f2b6 <_ZNSt7__cxx1112basic_stringIcSt11char_traitsIcESaIcEE10_M_disposeEv>
    b4ca:	48 8b 7c 24 20       	mov    0x20(%rsp),%rdi
    b4cf:	e8 e2 3d 00 00       	call   f2b6 <_ZNSt7__cxx1112basic_stringIcSt11char_traitsIcESaIcEE10_M_disposeEv>
    b4d4:	48 8b 7c 24 50       	mov    0x50(%rsp),%rdi
    b4d9:	e8 d8 3d 00 00       	call   f2b6 <_ZNSt7__cxx1112basic_stringIcSt11char_traitsIcESaIcEE10_M_disposeEv>
    b4de:	48 8b 7c 24 30       	mov    0x30(%rsp),%rdi
    b4e3:	e8 ce 3d 00 00       	call   f2b6 <_ZNSt7__cxx1112basic_stringIcSt11char_traitsIcESaIcEE10_M_disposeEv>
    b4e8:	48 8b 7c 24 10       	mov    0x10(%rsp),%rdi
    b4ed:	e8 c4 3d 00 00       	call   f2b6 <_ZNSt7__cxx1112basic_stringIcSt11char_traitsIcESaIcEE10_M_disposeEv>
    b4f2:	48 89 ef             	mov    %rbp,%rdi
    b4f5:	e8 46 f1 ff ff       	call   a640 <_Unwind_Resume@plt>

000000000000b4fa <_ZN7testing8internal6String15FormatHexUInt32B5cxx11Ej.cold>:
    b4fa:	4c 89 e7             	mov    %r12,%rdi
    b4fd:	49 89 dc             	mov    %rbx,%r12
    b500:	e8 b1 3d 00 00       	call   f2b6 <_ZNSt7__cxx1112basic_stringIcSt11char_traitsIcESaIcEE10_M_disposeEv>
    b505:	48 89 ef             	mov    %rbp,%rdi
    b508:	e8 73 ea ff ff       	call   9f80 <_ZNSt7__cxx1118basic_stringstreamIcSt11char_traitsIcESaIcEED1Ev@plt>
    b50d:	4c 89 e7             	mov    %r12,%rdi
    b510:	e8 2b f1 ff ff       	call   a640 <_Unwind_Resume@plt>

000000000000b515 <_ZN7testing8internal15CodePointToUtf8B5cxx11Ej.cold>:
    b515:	4c 89 ef             	mov    %r13,%rdi
    b518:	e8 99 3d 00 00       	call   f2b6 <_ZNSt7__cxx1112basic_stringIcSt11char_traitsIcESaIcEE10_M_disposeEv>
    b51d:	48 89 ef             	mov    %rbp,%rdi
    b520:	e8 91 3d 00 00       	call   f2b6 <_ZNSt7__cxx1112basic_stringIcSt11char_traitsIcESaIcEE10_M_disposeEv>
    b525:	4c 89 e7             	mov    %r12,%rdi
    b528:	e8 13 f1 ff ff       	call   a640 <_Unwind_Resume@plt>
    b52d:	90                   	nop

000000000000b52e <_ZN7testing8internal6String10FormatByteB5cxx11Eh.cold>:
    b52e:	4c 89 e7             	mov    %r12,%rdi
    b531:	e8 80 3d 00 00       	call   f2b6 <_ZNSt7__cxx1112basic_stringIcSt11char_traitsIcESaIcEE10_M_disposeEv>
    b536:	4c 89 ef             	mov    %r13,%rdi
    b539:	e8 42 ea ff ff       	call   9f80 <_ZNSt7__cxx1118basic_stringstreamIcSt11char_traitsIcESaIcEED1Ev@plt>
    b53e:	48 89 ef             	mov    %rbp,%rdi
    b541:	e8 fa f0 ff ff       	call   a640 <_Unwind_Resume@plt>

000000000000b546 <_ZN7testing8internal17StreamingListener9UrlEncodeB5cxx11EPKc.cold>:
    b546:	48 8d 7c 24 30       	lea    0x30(%rsp),%rdi
    b54b:	e8 66 3d 00 00       	call   f2b6 <_ZNSt7__cxx1112basic_stringIcSt11char_traitsIcESaIcEE10_M_disposeEv>
    b550:	4c 89 ff             	mov    %r15,%rdi
    b553:	e8 5e 3d 00 00       	call   f2b6 <_ZNSt7__cxx1112basic_stringIcSt11char_traitsIcESaIcEE10_M_disposeEv>
    b558:	4c 89 e7             	mov    %r12,%rdi
    b55b:	e8 56 3d 00 00       	call   f2b6 <_ZNSt7__cxx1112basic_stringIcSt11char_traitsIcESaIcEE10_M_disposeEv>
    b560:	48 89 ef             	mov    %rbp,%rdi
    b563:	e8 d8 f0 ff ff       	call   a640 <_Unwind_Resume@plt>

000000000000b568 <_ZN7testing8internal24XmlUnitTestResultPrinter9EscapeXmlERKNSt7__cxx1112basic_stringIcSt11char_traitsIcESaIcEEEb.cold>:
    b568:	48 8b 7c 24 08       	mov    0x8(%rsp),%rdi
    b56d:	e8 44 3d 00 00       	call   f2b6 <_ZNSt7__cxx1112basic_stringIcSt11char_traitsIcESaIcEE10_M_disposeEv>
    b572:	4c 89 ff             	mov    %r15,%rdi
    b575:	e8 76 fc 02 00       	call   3b1f0 <_ZNSt10unique_ptrINSt7__cxx1118basic_stringstreamIcSt11char_traitsIcESaIcEEESt14default_deleteIS5_EED1Ev>
    b57a:	48 89 ef             	mov    %rbp,%rdi
    b57d:	e8 be f0 ff ff       	call   a640 <_Unwind_Resume@plt>

000000000000b582 <_ZN7testing8internal24XmlUnitTestResultPrinter23OutputXmlTestPropertiesEPSoRKNS_10TestResultE.cold>:
    b582:	4c 89 f7             	mov    %r14,%rdi
    b585:	e8 2c 3d 00 00       	call   f2b6 <_ZNSt7__cxx1112basic_stringIcSt11char_traitsIcESaIcEE10_M_disposeEv>
    b58a:	4c 89 e7             	mov    %r12,%rdi
    b58d:	e8 24 3d 00 00       	call   f2b6 <_ZNSt7__cxx1112basic_stringIcSt11char_traitsIcESaIcEE10_M_disposeEv>
    b592:	48 8b 7c 24 20       	mov    0x20(%rsp),%rdi
    b597:	e8 1a 3d 00 00       	call   f2b6 <_ZNSt7__cxx1112basic_stringIcSt11char_traitsIcESaIcEE10_M_disposeEv>
    b59c:	48 8b 7c 24 28       	mov    0x28(%rsp),%rdi
    b5a1:	e8 10 3d 00 00       	call   f2b6 <_ZNSt7__cxx1112basic_stringIcSt11char_traitsIcESaIcEE10_M_disposeEv>
    b5a6:	48 89 df             	mov    %rbx,%rdi
    b5a9:	e8 92 f0 ff ff       	call   a640 <_Unwind_Resume@plt>
    b5ae:	4c 89 f7             	mov    %r14,%rdi
    b5b1:	e8 00 3d 00 00       	call   f2b6 <_ZNSt7__cxx1112basic_stringIcSt11char_traitsIcESaIcEE10_M_disposeEv>
    b5b6:	4c 89 e7             	mov    %r12,%rdi
    b5b9:	e8 f8 3c 00 00       	call   f2b6 <_ZNSt7__cxx1112basic_stringIcSt11char_traitsIcESaIcEE10_M_disposeEv>
    b5be:	eb d2                	jmp    b592 <_ZN7testing8internal24XmlUnitTestResultPrinter23OutputXmlTestPropertiesEPSoRKNS_10TestResultE.cold+0x10>

000000000000b5c0 <_ZN7testing8internal24XmlUnitTestResultPrinter19OutputXmlTestResultEPSoRKNS_10TestResultE.cold>:
    b5c0:	48 89 ef             	mov    %rbp,%rdi
    b5c3:	e8 ee 3c 00 00       	call   f2b6 <_ZNSt7__cxx1112basic_stringIcSt11char_traitsIcESaIcEE10_M_disposeEv>
    b5c8:	48 8b 7c 24 28       	mov    0x28(%rsp),%rdi
    b5cd:	e8 e4 3c 00 00       	call   f2b6 <_ZNSt7__cxx1112basic_stringIcSt11char_traitsIcESaIcEE10_M_disposeEv>
    b5d2:	48 89 df             	mov    %rbx,%rdi
    b5d5:	e8 66 f0 ff ff       	call   a640 <_Unwind_Resume@plt>
    b5da:	48 89 ef             	mov    %rbp,%rdi
    b5dd:	e8 d4 3c 00 00       	call   f2b6 <_ZNSt7__cxx1112basic_stringIcSt11char_traitsIcESaIcEE10_M_disposeEv>
    b5e2:	4c 89 f7             	mov    %r14,%rdi
    b5e5:	e8 cc 3c 00 00       	call   f2b6 <_ZNSt7__cxx1112basic_stringIcSt11char_traitsIcESaIcEE10_M_disposeEv>
    b5ea:	48 8b 7c 24 18       	mov    0x18(%rsp),%rdi
    b5ef:	e8 c2 3c 00 00       	call   f2b6 <_ZNSt7__cxx1112basic_stringIcSt11char_traitsIcESaIcEE10_M_disposeEv>
    b5f4:	eb d2                	jmp    b5c8 <_ZN7testing8internal24XmlUnitTestResultPrinter19OutputXmlTestResultEPSoRKNS_10TestResultE.cold+0x8>
    b5f6:	48 89 ef             	mov    %rbp,%rdi
    b5f9:	e8 b8 3c 00 00       	call   f2b6 <_ZNSt7__cxx1112basic_stringIcSt11char_traitsIcESaIcEE10_M_disposeEv>
    b5fe:	eb c8                	jmp    b5c8 <_ZN7testing8internal24XmlUnitTestResultPrinter19OutputXmlTestResultEPSoRKNS_10TestResultE.cold+0x8>
    b600:	48 89 ef             	mov    %rbp,%rdi
    b603:	e8 ae 3c 00 00       	call   f2b6 <_ZNSt7__cxx1112basic_stringIcSt11char_traitsIcESaIcEE10_M_disposeEv>
    b608:	48 8b 7c 24 18       	mov    0x18(%rsp),%rdi
    b60d:	e8 a4 3c 00 00       	call   f2b6 <_ZNSt7__cxx1112basic_stringIcSt11char_traitsIcESaIcEE10_M_disposeEv>
    b612:	eb b4                	jmp    b5c8 <_ZN7testing8internal24XmlUnitTestResultPrinter19OutputXmlTestResultEPSoRKNS_10TestResultE.cold+0x8>
    b614:	48 89 ef             	mov    %rbp,%rdi
    b617:	e8 9a 3c 00 00       	call   f2b6 <_ZNSt7__cxx1112basic_stringIcSt11char_traitsIcESaIcEE10_M_disposeEv>
    b61c:	eb aa                	jmp    b5c8 <_ZN7testing8internal24XmlUnitTestResultPrinter19OutputXmlTestResultEPSoRKNS_10TestResultE.cold+0x8>
    b61e:	48 89 ef             	mov    %rbp,%rdi
    b621:	e8 90 3c 00 00       	call   f2b6 <_ZNSt7__cxx1112basic_stringIcSt11char_traitsIcESaIcEE10_M_disposeEv>
    b626:	eb a0                	jmp    b5c8 <_ZN7testing8internal24XmlUnitTestResultPrinter19OutputXmlTestResultEPSoRKNS_10TestResultE.cold+0x8>
    b628:	48 89 ef             	mov    %rbp,%rdi
    b62b:	e8 86 3c 00 00       	call   f2b6 <_ZNSt7__cxx1112basic_stringIcSt11char_traitsIcESaIcEE10_M_disposeEv>
    b630:	eb b8                	jmp    b5ea <_ZN7testing8internal24XmlUnitTestResultPrinter19OutputXmlTestResultEPSoRKNS_10TestResultE.cold+0x2a>
    b632:	48 89 ef             	mov    %rbp,%rdi
    b635:	e8 7c 3c 00 00       	call   f2b6 <_ZNSt7__cxx1112basic_stringIcSt11char_traitsIcESaIcEE10_M_disposeEv>
    b63a:	4c 89 f7             	mov    %r14,%rdi
    b63d:	e8 74 3c 00 00       	call   f2b6 <_ZNSt7__cxx1112basic_stringIcSt11char_traitsIcESaIcEE10_M_disposeEv>
    b642:	eb c4                	jmp    b608 <_ZN7testing8internal24XmlUnitTestResultPrinter19OutputXmlTestResultEPSoRKNS_10TestResultE.cold+0x48>
    b644:	48 89 ef             	mov    %rbp,%rdi
    b647:	e8 6a 3c 00 00       	call   f2b6 <_ZNSt7__cxx1112basic_stringIcSt11char_traitsIcESaIcEE10_M_disposeEv>
    b64c:	eb 9c                	jmp    b5ea <_ZN7testing8internal24XmlUnitTestResultPrinter19OutputXmlTestResultEPSoRKNS_10TestResultE.cold+0x2a>
    b64e:	48 89 ef             	mov    %rbp,%rdi
    b651:	e8 60 3c 00 00       	call   f2b6 <_ZNSt7__cxx1112basic_stringIcSt11char_traitsIcESaIcEE10_M_disposeEv>
    b656:	eb b0                	jmp    b608 <_ZN7testing8internal24XmlUnitTestResultPrinter19OutputXmlTestResultEPSoRKNS_10TestResultE.cold+0x48>
    b658:	48 89 ef             	mov    %rbp,%rdi
    b65b:	e8 56 3c 00 00       	call   f2b6 <_ZNSt7__cxx1112basic_stringIcSt11char_traitsIcESaIcEE10_M_disposeEv>
    b660:	eb 88                	jmp    b5ea <_ZN7testing8internal24XmlUnitTestResultPrinter19OutputXmlTestResultEPSoRKNS_10TestResultE.cold+0x2a>
    b662:	48 89 ef             	mov    %rbp,%rdi
    b665:	e8 4c 3c 00 00       	call   f2b6 <_ZNSt7__cxx1112basic_stringIcSt11char_traitsIcESaIcEE10_M_disposeEv>
    b66a:	4c 89 f7             	mov    %r14,%rdi
    b66d:	e8 44 3c 00 00       	call   f2b6 <_ZNSt7__cxx1112basic_stringIcSt11char_traitsIcESaIcEE10_M_disposeEv>
    b672:	eb 94                	jmp    b608 <_ZN7testing8internal24XmlUnitTestResultPrinter19OutputXmlTestResultEPSoRKNS_10TestResultE.cold+0x48>

000000000000b674 <_ZN7testing8internal24XmlUnitTestResultPrinter29TestPropertiesAsXmlAttributesB5cxx11ERKNS_10TestResultE.cold>:
    b674:	4c 89 ff             	mov    %r15,%rdi
    b677:	e8 3a 3c 00 00       	call   f2b6 <_ZNSt7__cxx1112basic_stringIcSt11char_traitsIcESaIcEE10_M_disposeEv>
    b67c:	48 89 ef             	mov    %rbp,%rdi
    b67f:	48 89 dd             	mov    %rbx,%rbp
    b682:	e8 2f 3c 00 00       	call   f2b6 <_ZNSt7__cxx1112basic_stringIcSt11char_traitsIcESaIcEE10_M_disposeEv>
    b687:	48 8b 7c 24 08       	mov    0x8(%rsp),%rdi
    b68c:	e8 5f fb 02 00       	call   3b1f0 <_ZNSt10unique_ptrINSt7__cxx1118basic_stringstreamIcSt11char_traitsIcESaIcEEESt14default_deleteIS5_EED1Ev>
    b691:	48 89 ef             	mov    %rbp,%rdi
    b694:	e8 a7 ef ff ff       	call   a640 <_Unwind_Resume@plt>
    b699:	90                   	nop

000000000000b69a <_ZN7testing8internal25JsonUnitTestResultPrinter10EscapeJsonERKNSt7__cxx1112basic_stringIcSt11char_traitsIcESaIcEEE.cold>:
    b69a:	48 8b 7c 24 08       	mov    0x8(%rsp),%rdi
    b69f:	e8 12 3c 00 00       	call   f2b6 <_ZNSt7__cxx1112basic_stringIcSt11char_traitsIcESaIcEE10_M_disposeEv>
    b6a4:	4c 89 ff             	mov    %r15,%rdi
    b6a7:	e8 44 fb 02 00       	call   3b1f0 <_ZNSt10unique_ptrINSt7__cxx1118basic_stringstreamIcSt11char_traitsIcESaIcEEESt14default_deleteIS5_EED1Ev>
    b6ac:	48 89 ef             	mov    %rbp,%rdi
    b6af:	e8 8c ef ff ff       	call   a640 <_Unwind_Resume@plt>

000000000000b6b4 <_ZN7testing8internal25JsonUnitTestResultPrinter20OutputJsonTestResultEPSoRKNS_10TestResultE.cold>:
    b6b4:	4c 89 f7             	mov    %r14,%rdi
    b6b7:	e8 fa 3b 00 00       	call   f2b6 <_ZNSt7__cxx1112basic_stringIcSt11char_traitsIcESaIcEE10_M_disposeEv>
    b6bc:	4c 89 e7             	mov    %r12,%rdi
    b6bf:	e8 f2 3b 00 00       	call   f2b6 <_ZNSt7__cxx1112basic_stringIcSt11char_traitsIcESaIcEE10_M_disposeEv>
    b6c4:	48 8b 7c 24 10       	mov    0x10(%rsp),%rdi
    b6c9:	e8 e8 3b 00 00       	call   f2b6 <_ZNSt7__cxx1112basic_stringIcSt11char_traitsIcESaIcEE10_M_disposeEv>
    b6ce:	48 8b 7c 24 28       	mov    0x28(%rsp),%rdi
    b6d3:	e8 de 3b 00 00       	call   f2b6 <_ZNSt7__cxx1112basic_stringIcSt11char_traitsIcESaIcEE10_M_disposeEv>
    b6d8:	48 89 df             	mov    %rbx,%rdi
    b6db:	e8 60 ef ff ff       	call   a640 <_Unwind_Resume@plt>
    b6e0:	4c 89 e7             	mov    %r12,%rdi
    b6e3:	e8 ce 3b 00 00       	call   f2b6 <_ZNSt7__cxx1112basic_stringIcSt11char_traitsIcESaIcEE10_M_disposeEv>
    b6e8:	eb da                	jmp    b6c4 <_ZN7testing8internal25JsonUnitTestResultPrinter20OutputJsonTestResultEPSoRKNS_10TestResultE.cold+0x10>
    b6ea:	48 8b 7c 24 18       	mov    0x18(%rsp),%rdi
    b6ef:	e8 c2 3b 00 00       	call   f2b6 <_ZNSt7__cxx1112basic_stringIcSt11char_traitsIcESaIcEE10_M_disposeEv>
    b6f4:	eb ce                	jmp    b6c4 <_ZN7testing8internal25JsonUnitTestResultPrinter20OutputJsonTestResultEPSoRKNS_10TestResultE.cold+0x10>
    b6f6:	4c 89 f7             	mov    %r14,%rdi
    b6f9:	e8 b8 3b 00 00       	call   f2b6 <_ZNSt7__cxx1112basic_stringIcSt11char_traitsIcESaIcEE10_M_disposeEv>
    b6fe:	eb ce                	jmp    b6ce <_ZN7testing8internal25JsonUnitTestResultPrinter20OutputJsonTestResultEPSoRKNS_10TestResultE.cold+0x1a>

000000000000b700 <_ZN7testing8internal25JsonUnitTestResultPrinter20TestPropertiesAsJsonERKNS_10TestResultERKNSt7__cxx1112basic_stringIcSt11char_traitsIcESaIcEEE.cold>:
    b700:	48 8b 7c 24 08       	mov    0x8(%rsp),%rdi
    b705:	e8 ac 3b 00 00       	call   f2b6 <_ZNSt7__cxx1112basic_stringIcSt11char_traitsIcESaIcEE10_M_disposeEv>
    b70a:	4c 89 e7             	mov    %r12,%rdi
    b70d:	e8 a4 3b 00 00       	call   f2b6 <_ZNSt7__cxx1112basic_stringIcSt11char_traitsIcESaIcEE10_M_disposeEv>
    b712:	48 8b 7c 24 18       	mov    0x18(%rsp),%rdi
    b717:	e8 d4 fa 02 00       	call   3b1f0 <_ZNSt10unique_ptrINSt7__cxx1118basic_stringstreamIcSt11char_traitsIcESaIcEEESt14default_deleteIS5_EED1Ev>
    b71c:	48 89 ef             	mov    %rbp,%rdi
    b71f:	e8 1c ef ff ff       	call   a640 <_Unwind_Resume@plt>

000000000000b724 <_ZN7testing8internal27FormatTimeInMillisAsSecondsB5cxx11El.cold>:
    b724:	4c 89 e7             	mov    %r12,%rdi
    b727:	49 89 dc             	mov    %rbx,%r12
    b72a:	e8 87 3b 00 00       	call   f2b6 <_ZNSt7__cxx1112basic_stringIcSt11char_traitsIcESaIcEE10_M_disposeEv>
    b72f:	48 89 ef             	mov    %rbp,%rdi
    b732:	e8 49 e8 ff ff       	call   9f80 <_ZNSt7__cxx1118basic_stringstreamIcSt11char_traitsIcESaIcEED1Ev@plt>
    b737:	4c 89 e7             	mov    %r12,%rdi
    b73a:	e8 01 ef ff ff       	call   a640 <_Unwind_Resume@plt>

000000000000b73f <_ZN7testing8internalL28FormatTimeInMillisAsDurationEl.cold>:
    b73f:	4c 89 e7             	mov    %r12,%rdi
    b742:	49 89 dc             	mov    %rbx,%r12
    b745:	e8 6c 3b 00 00       	call   f2b6 <_ZNSt7__cxx1112basic_stringIcSt11char_traitsIcESaIcEE10_M_disposeEv>
    b74a:	48 89 ef             	mov    %rbp,%rdi
    b74d:	e8 2e e8 ff ff       	call   9f80 <_ZNSt7__cxx1118basic_stringstreamIcSt11char_traitsIcESaIcEED1Ev@plt>
    b752:	4c 89 e7             	mov    %r12,%rdi
    b755:	e8 e6 ee ff ff       	call   a640 <_Unwind_Resume@plt>

000000000000b75a <_ZN7testing8internal16WideStringToUtf8B5cxx11EPKwi.cold>:
    b75a:	4c 89 e7             	mov    %r12,%rdi
    b75d:	e8 54 3b 00 00       	call   f2b6 <_ZNSt7__cxx1112basic_stringIcSt11char_traitsIcESaIcEE10_M_disposeEv>
    b762:	48 8b 7c 24 10       	mov    0x10(%rsp),%rdi
    b767:	e8 14 e8 ff ff       	call   9f80 <_ZNSt7__cxx1118basic_stringstreamIcSt11char_traitsIcESaIcEED1Ev@plt>
    b76c:	48 89 ef             	mov    %rbp,%rdi
    b76f:	e8 cc ee ff ff       	call   a640 <_Unwind_Resume@plt>
    b774:	4c 89 ef             	mov    %r13,%rdi
    b777:	e8 c4 f9 02 00       	call   3b140 <_ZNSt7__cxx1115basic_stringbufIcSt11char_traitsIcESaIcEED1Ev>
    b77c:	48 8b 7c 24 10       	mov    0x10(%rsp),%rdi
    b781:	48 8d 73 08          	lea    0x8(%rbx),%rsi
    b785:	e8 e6 e4 ff ff       	call   9c70 <_ZNSdD2Ev@plt>
    b78a:	48 8b 05 a7 47 05 00 	mov    0x547a7(%rip),%rax        # 5ff38 <_ZTVSt9basic_iosIcSt11char_traitsIcEE@GLIBCXX_3.4>
    b791:	4c 89 ff             	mov    %r15,%rdi
    b794:	48 83 c0 10          	add    $0x10,%rax
    b798:	48 89 84 24 f0 00 00 	mov    %rax,0xf0(%rsp)
    b79f:	00 
    b7a0:	e8 bb e5 ff ff       	call   9d60 <_ZNSt8ios_baseD2Ev@plt>
    b7a5:	48 89 ef             	mov    %rbp,%rdi
    b7a8:	e8 93 ee ff ff       	call   a640 <_Unwind_Resume@plt>
    b7ad:	49 8b 46 e8          	mov    -0x18(%r14),%rax
    b7b1:	48 8b 4c 24 18       	mov    0x18(%rsp),%rcx
    b7b6:	4c 89 74 24 70       	mov    %r14,0x70(%rsp)
    b7bb:	48 89 4c 04 70       	mov    %rcx,0x70(%rsp,%rax,1)
    b7c0:	48 c7 44 24 78 00 00 	movq   $0x0,0x78(%rsp)
    b7c7:	00 00 
    b7c9:	eb bf                	jmp    b78a <_ZN7testing8internal16WideStringToUtf8B5cxx11EPKwi.cold+0x30>
    b7cb:	90                   	nop

000000000000b7cc <_ZN7testing7MessagelsERKNSt7__cxx1112basic_stringIwSt11char_traitsIwESaIwEEE.cold>:
    b7cc:	4c 89 ff             	mov    %r15,%rdi
    b7cf:	e8 e2 3a 00 00       	call   f2b6 <_ZNSt7__cxx1112basic_stringIcSt11char_traitsIcESaIcEE10_M_disposeEv>
    b7d4:	48 89 ef             	mov    %rbp,%rdi
    b7d7:	e8 64 ee ff ff       	call   a640 <_Unwind_Resume@plt>

000000000000b7dc <_ZN7testing7MessagelsEPKw.cold>:
    b7dc:	48 89 ef             	mov    %rbp,%rdi
    b7df:	e8 d2 3a 00 00       	call   f2b6 <_ZNSt7__cxx1112basic_stringIcSt11char_traitsIcESaIcEE10_M_disposeEv>
    b7e4:	4c 89 e7             	mov    %r12,%rdi
    b7e7:	e8 54 ee ff ff       	call   a640 <_Unwind_Resume@plt>

000000000000b7ec <_ZN7testing7MessagelsEPw.cold>:
    b7ec:	48 89 ef             	mov    %rbp,%rdi
    b7ef:	e8 c2 3a 00 00       	call   f2b6 <_ZNSt7__cxx1112basic_stringIcSt11char_traitsIcESaIcEE10_M_disposeEv>
    b7f4:	4c 89 e7             	mov    %r12,%rdi
    b7f7:	e8 44 ee ff ff       	call   a640 <_Unwind_Resume@plt>

000000000000b7fc <_ZN7testing8internal14CmpHelperSTRNEEPKcS2_PKwS4_.cold>:
    b7fc:	48 89 ef             	mov    %rbp,%rdi
    b7ff:	e8 ec f9 02 00       	call   3b1f0 <_ZNSt10unique_ptrINSt7__cxx1118basic_stringstreamIcSt11char_traitsIcESaIcEEESt14default_deleteIS5_EED1Ev>
    b804:	48 8b 7c 24 38       	mov    0x38(%rsp),%rdi
    b809:	48 85 ff             	test   %rdi,%rdi
    b80c:	74 05                	je     b813 <_ZN7testing8internal14CmpHelperSTRNEEPKcS2_PKwS4_.cold+0x17>
    b80e:	e8 1d 7d 00 00       	call   13530 <_ZNKSt14default_deleteIKNSt7__cxx1112basic_stringIcSt11char_traitsIcESaIcEEEEclEPS6_.part.0>
    b813:	4c 89 e7             	mov    %r12,%rdi
    b816:	e8 25 ee ff ff       	call   a640 <_Unwind_Resume@plt>
    b81b:	48 89 ef             	mov    %rbp,%rdi
    b81e:	e8 cd f9 02 00       	call   3b1f0 <_ZNSt10unique_ptrINSt7__cxx1118basic_stringstreamIcSt11char_traitsIcESaIcEEESt14default_deleteIS5_EED1Ev>
    b823:	4c 89 ff             	mov    %r15,%rdi
    b826:	e8 8b 3a 00 00       	call   f2b6 <_ZNSt7__cxx1112basic_stringIcSt11char_traitsIcESaIcEE10_M_disposeEv>
    b82b:	4c 89 f7             	mov    %r14,%rdi
    b82e:	e8 83 3a 00 00       	call   f2b6 <_ZNSt7__cxx1112basic_stringIcSt11char_traitsIcESaIcEE10_M_disposeEv>
    b833:	eb cf                	jmp    b804 <_ZN7testing8internal14CmpHelperSTRNEEPKcS2_PKwS4_.cold+0x8>
    b835:	48 89 ef             	mov    %rbp,%rdi
    b838:	e8 b3 f9 02 00       	call   3b1f0 <_ZNSt10unique_ptrINSt7__cxx1118basic_stringstreamIcSt11char_traitsIcESaIcEEESt14default_deleteIS5_EED1Ev>
    b83d:	eb ec                	jmp    b82b <_ZN7testing8internal14CmpHelperSTRNEEPKcS2_PKwS4_.cold+0x2f>

000000000000b83f <_ZN7testing8internal14CmpHelperSTRNEEPKcS2_S2_S2_.cold>:
    b83f:	48 89 ef             	mov    %rbp,%rdi
    b842:	e8 a9 f9 02 00       	call   3b1f0 <_ZNSt10unique_ptrINSt7__cxx1118basic_stringstreamIcSt11char_traitsIcESaIcEEESt14default_deleteIS5_EED1Ev>
    b847:	48 8b 7c 24 38       	mov    0x38(%rsp),%rdi
    b84c:	48 85 ff             	test   %rdi,%rdi
    b84f:	74 05                	je     b856 <_ZN7testing8internal14CmpHelperSTRNEEPKcS2_S2_S2_.cold+0x17>
    b851:	e8 da 7c 00 00       	call   13530 <_ZNKSt14default_deleteIKNSt7__cxx1112basic_stringIcSt11char_traitsIcESaIcEEEEclEPS6_.part.0>
    b856:	4c 89 e7             	mov    %r12,%rdi
    b859:	e8 e2 ed ff ff       	call   a640 <_Unwind_Resume@plt>

000000000000b85e <_ZN7testing8internal18CmpHelperSTRCASENEEPKcS2_S2_S2_.cold>:
    b85e:	48 89 ef             	mov    %rbp,%rdi
    b861:	e8 8a f9 02 00       	call   3b1f0 <_ZNSt10unique_ptrINSt7__cxx1118basic_stringstreamIcSt11char_traitsIcESaIcEEESt14default_deleteIS5_EED1Ev>
    b866:	48 8b 7c 24 38       	mov    0x38(%rsp),%rdi
    b86b:	48 85 ff             	test   %rdi,%rdi
    b86e:	74 05                	je     b875 <_ZN7testing8internal18CmpHelperSTRCASENEEPKcS2_S2_S2_.cold+0x17>
    b870:	e8 bb 7c 00 00       	call   13530 <_ZNKSt14default_deleteIKNSt7__cxx1112basic_stringIcSt11char_traitsIcESaIcEEEEclEPS6_.part.0>
    b875:	4c 89 e7             	mov    %r12,%rdi
    b878:	e8 c3 ed ff ff       	call   a640 <_Unwind_Resume@plt>

000000000000b87d <_ZN7testing12_GLOBAL__N_115IsSubstringImplIPKcEENS_15AssertionResultEbS3_S3_RKT_S7_.cold>:
    b87d:	4c 89 f7             	mov    %r14,%rdi
    b880:	e8 6b f9 02 00       	call   3b1f0 <_ZNSt10unique_ptrINSt7__cxx1118basic_stringstreamIcSt11char_traitsIcESaIcEEESt14default_deleteIS5_EED1Ev>
    b885:	48 8b 7c 24 38       	mov    0x38(%rsp),%rdi
    b88a:	48 85 ff             	test   %rdi,%rdi
    b88d:	74 05                	je     b894 <_ZN7testing12_GLOBAL__N_115IsSubstringImplIPKcEENS_15AssertionResultEbS3_S3_RKT_S7_.cold+0x17>
    b88f:	e8 9c 7c 00 00       	call   13530 <_ZNKSt14default_deleteIKNSt7__cxx1112basic_stringIcSt11char_traitsIcESaIcEEEEclEPS6_.part.0>
    b894:	48 89 ef             	mov    %rbp,%rdi
    b897:	e8 a4 ed ff ff       	call   a640 <_Unwind_Resume@plt>
    b89c:	4c 89 f7             	mov    %r14,%rdi
    b89f:	e8 4c f9 02 00       	call   3b1f0 <_ZNSt10unique_ptrINSt7__cxx1118basic_stringstreamIcSt11char_traitsIcESaIcEEESt14default_deleteIS5_EED1Ev>
    b8a4:	eb df                	jmp    b885 <_ZN7testing12_GLOBAL__N_115IsSubstringImplIPKcEENS_15AssertionResultEbS3_S3_RKT_S7_.cold+0x8>
    b8a6:	4c 89 f7             	mov    %r14,%rdi
    b8a9:	e8 42 f9 02 00       	call   3b1f0 <_ZNSt10unique_ptrINSt7__cxx1118basic_stringstreamIcSt11char_traitsIcESaIcEEESt14default_deleteIS5_EED1Ev>
    b8ae:	eb d5                	jmp    b885 <_ZN7testing12_GLOBAL__N_115IsSubstringImplIPKcEENS_15AssertionResultEbS3_S3_RKT_S7_.cold+0x8>

000000000000b8b0 <_ZN7testing12_GLOBAL__N_115IsSubstringImplINSt7__cxx1112basic_stringIcSt11char_traitsIcESaIcEEEEENS_15AssertionResultEbPKcSA_RKT_SD_.cold>:
    b8b0:	48 89 ef             	mov    %rbp,%rdi
    b8b3:	e8 38 f9 02 00       	call   3b1f0 <_ZNSt10unique_ptrINSt7__cxx1118basic_stringstreamIcSt11char_traitsIcESaIcEEESt14default_deleteIS5_EED1Ev>
    b8b8:	48 8b 7c 24 48       	mov    0x48(%rsp),%rdi
    b8bd:	48 85 ff             	test   %rdi,%rdi
    b8c0:	74 05                	je     b8c7 <_ZN7testing12_GLOBAL__N_115IsSubstringImplINSt7__cxx1112basic_stringIcSt11char_traitsIcESaIcEEEEENS_15AssertionResultEbPKcSA_RKT_SD_.cold+0x17>
    b8c2:	e8 69 7c 00 00       	call   13530 <_ZNKSt14default_deleteIKNSt7__cxx1112basic_stringIcSt11char_traitsIcESaIcEEEEclEPS6_.part.0>
    b8c7:	48 89 df             	mov    %rbx,%rdi
    b8ca:	e8 71 ed ff ff       	call   a640 <_Unwind_Resume@plt>

000000000000b8cf <_ZN7testing12_GLOBAL__N_115IsSubstringImplINSt7__cxx1112basic_stringIwSt11char_traitsIwESaIwEEEEENS_15AssertionResultEbPKcSA_RKT_SD_.cold>:
    b8cf:	48 89 ef             	mov    %rbp,%rdi
    b8d2:	e8 19 f9 02 00       	call   3b1f0 <_ZNSt10unique_ptrINSt7__cxx1118basic_stringstreamIcSt11char_traitsIcESaIcEEESt14default_deleteIS5_EED1Ev>
    b8d7:	48 8b 7c 24 48       	mov    0x48(%rsp),%rdi
    b8dc:	48 85 ff             	test   %rdi,%rdi
    b8df:	74 05                	je     b8e6 <_ZN7testing12_GLOBAL__N_115IsSubstringImplINSt7__cxx1112basic_stringIwSt11char_traitsIwESaIwEEEEENS_15AssertionResultEbPKcSA_RKT_SD_.cold+0x17>
    b8e1:	e8 4a 7c 00 00       	call   13530 <_ZNKSt14default_deleteIKNSt7__cxx1112basic_stringIcSt11char_traitsIcESaIcEEEEclEPS6_.part.0>
    b8e6:	48 89 df             	mov    %rbx,%rdi
    b8e9:	e8 52 ed ff ff       	call   a640 <_Unwind_Resume@plt>

000000000000b8ee <_ZN7testing12_GLOBAL__N_115IsSubstringImplIPKwEENS_15AssertionResultEbPKcS6_RKT_S9_.cold>:
    b8ee:	48 89 ef             	mov    %rbp,%rdi
    b8f1:	e8 fa f8 02 00       	call   3b1f0 <_ZNSt10unique_ptrINSt7__cxx1118basic_stringstreamIcSt11char_traitsIcESaIcEEESt14default_deleteIS5_EED1Ev>
    b8f6:	48 8b 7c 24 48       	mov    0x48(%rsp),%rdi
    b8fb:	48 85 ff             	test   %rdi,%rdi
    b8fe:	74 05                	je     b905 <_ZN7testing12_GLOBAL__N_115IsSubstringImplIPKwEENS_15AssertionResultEbPKcS6_RKT_S9_.cold+0x17>
    b900:	e8 2b 7c 00 00       	call   13530 <_ZNKSt14default_deleteIKNSt7__cxx1112basic_stringIcSt11char_traitsIcESaIcEEEEclEPS6_.part.0>
    b905:	48 89 df             	mov    %rbx,%rdi
    b908:	e8 33 ed ff ff       	call   a640 <_Unwind_Resume@plt>

000000000000b90d <_ZN7testing8internal20DoubleNearPredFormatEPKcS2_S2_ddd.cold>:
    b90d:	48 89 ef             	mov    %rbp,%rdi
    b910:	e8 db f8 02 00       	call   3b1f0 <_ZNSt10unique_ptrINSt7__cxx1118basic_stringstreamIcSt11char_traitsIcESaIcEEESt14default_deleteIS5_EED1Ev>
    b915:	48 8b 7c 24 78       	mov    0x78(%rsp),%rdi
    b91a:	48 85 ff             	test   %rdi,%rdi
    b91d:	74 05                	je     b924 <_ZN7testing8internal20DoubleNearPredFormatEPKcS2_S2_ddd.cold+0x17>
    b91f:	e8 0c 7c 00 00       	call   13530 <_ZNKSt14default_deleteIKNSt7__cxx1112basic_stringIcSt11char_traitsIcESaIcEEEEclEPS6_.part.0>
    b924:	48 89 df             	mov    %rbx,%rdi
    b927:	e8 14 ed ff ff       	call   a640 <_Unwind_Resume@plt>
    b92c:	48 89 ef             	mov    %rbp,%rdi
    b92f:	e8 bc f8 02 00       	call   3b1f0 <_ZNSt10unique_ptrINSt7__cxx1118basic_stringstreamIcSt11char_traitsIcESaIcEEESt14default_deleteIS5_EED1Ev>
    b934:	eb df                	jmp    b915 <_ZN7testing8internal20DoubleNearPredFormatEPKcS2_S2_ddd.cold+0x8>
    b936:	48 89 ef             	mov    %rbp,%rdi
    b939:	e8 b2 f8 02 00       	call   3b1f0 <_ZNSt10unique_ptrINSt7__cxx1118basic_stringstreamIcSt11char_traitsIcESaIcEEESt14default_deleteIS5_EED1Ev>
    b93e:	eb d5                	jmp    b915 <_ZN7testing8internal20DoubleNearPredFormatEPKcS2_S2_ddd.cold+0x8>
    b940:	48 89 ef             	mov    %rbp,%rdi
    b943:	e8 a8 f8 02 00       	call   3b1f0 <_ZNSt10unique_ptrINSt7__cxx1118basic_stringstreamIcSt11char_traitsIcESaIcEEESt14default_deleteIS5_EED1Ev>
    b948:	eb cb                	jmp    b915 <_ZN7testing8internal20DoubleNearPredFormatEPKcS2_S2_ddd.cold+0x8>
    b94a:	48 89 ef             	mov    %rbp,%rdi
    b94d:	e8 9e f8 02 00       	call   3b1f0 <_ZNSt10unique_ptrINSt7__cxx1118basic_stringstreamIcSt11char_traitsIcESaIcEEESt14default_deleteIS5_EED1Ev>
    b952:	eb c1                	jmp    b915 <_ZN7testing8internal20DoubleNearPredFormatEPKcS2_S2_ddd.cold+0x8>
    b954:	48 89 ef             	mov    %rbp,%rdi
    b957:	e8 94 f8 02 00       	call   3b1f0 <_ZNSt10unique_ptrINSt7__cxx1118basic_stringstreamIcSt11char_traitsIcESaIcEEESt14default_deleteIS5_EED1Ev>
    b95c:	eb b7                	jmp    b915 <_ZN7testing8internal20DoubleNearPredFormatEPKcS2_S2_ddd.cold+0x8>
    b95e:	48 89 ef             	mov    %rbp,%rdi
    b961:	e8 8a f8 02 00       	call   3b1f0 <_ZNSt10unique_ptrINSt7__cxx1118basic_stringstreamIcSt11char_traitsIcESaIcEEESt14default_deleteIS5_EED1Ev>
    b966:	eb ad                	jmp    b915 <_ZN7testing8internal20DoubleNearPredFormatEPKcS2_S2_ddd.cold+0x8>
    b968:	48 89 ef             	mov    %rbp,%rdi
    b96b:	e8 80 f8 02 00       	call   3b1f0 <_ZNSt10unique_ptrINSt7__cxx1118basic_stringstreamIcSt11char_traitsIcESaIcEEESt14default_deleteIS5_EED1Ev>
    b970:	48 8b 7c 24 78       	mov    0x78(%rsp),%rdi
    b975:	48 85 ff             	test   %rdi,%rdi
    b978:	74 05                	je     b97f <_ZN7testing8internal20DoubleNearPredFormatEPKcS2_S2_ddd.cold+0x72>
    b97a:	e8 b1 7b 00 00       	call   13530 <_ZNKSt14default_deleteIKNSt7__cxx1112basic_stringIcSt11char_traitsIcESaIcEEEEclEPS6_.part.0>
    b97f:	48 89 df             	mov    %rbx,%rdi
    b982:	e8 b9 ec ff ff       	call   a640 <_Unwind_Resume@plt>
    b987:	90                   	nop

000000000000b988 <_ZN7testing8internal24XmlUnitTestResultPrinter18OutputXmlAttributeEPSoRKNSt7__cxx1112basic_stringIcSt11char_traitsIcESaIcEEESA_SA_.cold>:
    b988:	4c 89 e7             	mov    %r12,%rdi
    b98b:	e8 26 39 00 00       	call   f2b6 <_ZNSt7__cxx1112basic_stringIcSt11char_traitsIcESaIcEE10_M_disposeEv>
    b990:	4c 89 f7             	mov    %r14,%rdi
    b993:	e8 48 ea 02 00       	call   3a3e0 <_ZNSt6vectorINSt7__cxx1112basic_stringIcSt11char_traitsIcESaIcEEESaIS5_EED1Ev>
    b998:	48 89 ef             	mov    %rbp,%rdi
    b99b:	e8 a0 ec ff ff       	call   a640 <_Unwind_Resume@plt>
    b9a0:	4c 89 ff             	mov    %r15,%rdi
    b9a3:	e8 d8 c8 00 00       	call   18280 <_ZN7testing8internal8GTestLogD1Ev>
    b9a8:	eb e6                	jmp    b990 <_ZN7testing8internal24XmlUnitTestResultPrinter18OutputXmlAttributeEPSoRKNSt7__cxx1112basic_stringIcSt11char_traitsIcESaIcEEESA_SA_.cold+0x8>

000000000000b9aa <_ZN7testing8internal24XmlUnitTestResultPrinter31OutputXmlTestSuiteForTestResultEPSoRKNS_10TestResultE.cold>:
    b9aa:	4c 89 ef             	mov    %r13,%rdi
    b9ad:	e8 04 39 00 00       	call   f2b6 <_ZNSt7__cxx1112basic_stringIcSt11char_traitsIcESaIcEE10_M_disposeEv>
    b9b2:	4c 89 e7             	mov    %r12,%rdi
    b9b5:	49 89 dc             	mov    %rbx,%r12
    b9b8:	e8 f9 38 00 00       	call   f2b6 <_ZNSt7__cxx1112basic_stringIcSt11char_traitsIcESaIcEE10_M_disposeEv>
    b9bd:	48 89 ef             	mov    %rbp,%rdi
    b9c0:	e8 f1 38 00 00       	call   f2b6 <_ZNSt7__cxx1112basic_stringIcSt11char_traitsIcESaIcEE10_M_disposeEv>
    b9c5:	4c 89 e7             	mov    %r12,%rdi
    b9c8:	e8 73 ec ff ff       	call   a640 <_Unwind_Resume@plt>
    b9cd:	48 89 ef             	mov    %rbp,%rdi
    b9d0:	48 89 dd             	mov    %rbx,%rbp
    b9d3:	e8 de 38 00 00       	call   f2b6 <_ZNSt7__cxx1112basic_stringIcSt11char_traitsIcESaIcEE10_M_disposeEv>
    b9d8:	4c 89 ef             	mov    %r13,%rdi
    b9db:	e8 d6 38 00 00       	call   f2b6 <_ZNSt7__cxx1112basic_stringIcSt11char_traitsIcESaIcEE10_M_disposeEv>
    b9e0:	4c 89 e7             	mov    %r12,%rdi
    b9e3:	e8 ce 38 00 00       	call   f2b6 <_ZNSt7__cxx1112basic_stringIcSt11char_traitsIcESaIcEE10_M_disposeEv>
    b9e8:	48 89 ef             	mov    %rbp,%rdi
    b9eb:	e8 50 ec ff ff       	call   a640 <_Unwind_Resume@plt>
    b9f0:	4c 89 ef             	mov    %r13,%rdi
    b9f3:	e8 be 38 00 00       	call   f2b6 <_ZNSt7__cxx1112basic_stringIcSt11char_traitsIcESaIcEE10_M_disposeEv>
    b9f8:	4c 89 e7             	mov    %r12,%rdi
    b9fb:	49 89 dc             	mov    %rbx,%r12
    b9fe:	e8 b3 38 00 00       	call   f2b6 <_ZNSt7__cxx1112basic_stringIcSt11char_traitsIcESaIcEE10_M_disposeEv>
    ba03:	eb b8                	jmp    b9bd <_ZN7testing8internal24XmlUnitTestResultPrinter31OutputXmlTestSuiteForTestResultEPSoRKNS_10TestResultE.cold+0x13>
    ba05:	48 89 ef             	mov    %rbp,%rdi
    ba08:	48 89 dd             	mov    %rbx,%rbp
    ba0b:	e8 a6 38 00 00       	call   f2b6 <_ZNSt7__cxx1112basic_stringIcSt11char_traitsIcESaIcEE10_M_disposeEv>
    ba10:	4c 89 ef             	mov    %r13,%rdi
    ba13:	e8 9e 38 00 00       	call   f2b6 <_ZNSt7__cxx1112basic_stringIcSt11char_traitsIcESaIcEE10_M_disposeEv>
    ba18:	eb c6                	jmp    b9e0 <_ZN7testing8internal24XmlUnitTestResultPrinter31OutputXmlTestSuiteForTestResultEPSoRKNS_10TestResultE.cold+0x36>
    ba1a:	48 89 ef             	mov    %rbp,%rdi
    ba1d:	48 89 dd             	mov    %rbx,%rbp
    ba20:	e8 91 38 00 00       	call   f2b6 <_ZNSt7__cxx1112basic_stringIcSt11char_traitsIcESaIcEE10_M_disposeEv>
    ba25:	4c 89 ef             	mov    %r13,%rdi
    ba28:	e8 89 38 00 00       	call   f2b6 <_ZNSt7__cxx1112basic_stringIcSt11char_traitsIcESaIcEE10_M_disposeEv>
    ba2d:	eb b1                	jmp    b9e0 <_ZN7testing8internal24XmlUnitTestResultPrinter31OutputXmlTestSuiteForTestResultEPSoRKNS_10TestResultE.cold+0x36>
    ba2f:	48 89 ef             	mov    %rbp,%rdi
    ba32:	48 89 dd             	mov    %rbx,%rbp
    ba35:	e8 7c 38 00 00       	call   f2b6 <_ZNSt7__cxx1112basic_stringIcSt11char_traitsIcESaIcEE10_M_disposeEv>
    ba3a:	4c 89 ef             	mov    %r13,%rdi
    ba3d:	e8 74 38 00 00       	call   f2b6 <_ZNSt7__cxx1112basic_stringIcSt11char_traitsIcESaIcEE10_M_disposeEv>
    ba42:	eb 9c                	jmp    b9e0 <_ZN7testing8internal24XmlUnitTestResultPrinter31OutputXmlTestSuiteForTestResultEPSoRKNS_10TestResultE.cold+0x36>
    ba44:	4c 89 ef             	mov    %r13,%rdi
    ba47:	e8 6a 38 00 00       	call   f2b6 <_ZNSt7__cxx1112basic_stringIcSt11char_traitsIcESaIcEE10_M_disposeEv>
    ba4c:	4c 89 e7             	mov    %r12,%rdi
    ba4f:	49 89 dc             	mov    %rbx,%r12
    ba52:	e8 5f 38 00 00       	call   f2b6 <_ZNSt7__cxx1112basic_stringIcSt11char_traitsIcESaIcEE10_M_disposeEv>
    ba57:	e9 61 ff ff ff       	jmp    b9bd <_ZN7testing8internal24XmlUnitTestResultPrinter31OutputXmlTestSuiteForTestResultEPSoRKNS_10TestResultE.cold+0x13>
    ba5c:	4c 89 ef             	mov    %r13,%rdi
    ba5f:	e8 52 38 00 00       	call   f2b6 <_ZNSt7__cxx1112basic_stringIcSt11char_traitsIcESaIcEE10_M_disposeEv>
    ba64:	4c 89 e7             	mov    %r12,%rdi
    ba67:	49 89 dc             	mov    %rbx,%r12
    ba6a:	e8 47 38 00 00       	call   f2b6 <_ZNSt7__cxx1112basic_stringIcSt11char_traitsIcESaIcEE10_M_disposeEv>
    ba6f:	e9 49 ff ff ff       	jmp    b9bd <_ZN7testing8internal24XmlUnitTestResultPrinter31OutputXmlTestSuiteForTestResultEPSoRKNS_10TestResultE.cold+0x13>
    ba74:	48 89 ef             	mov    %rbp,%rdi
    ba77:	48 89 dd             	mov    %rbx,%rbp
    ba7a:	e8 37 38 00 00       	call   f2b6 <_ZNSt7__cxx1112basic_stringIcSt11char_traitsIcESaIcEE10_M_disposeEv>
    ba7f:	4c 89 ef             	mov    %r13,%rdi
    ba82:	e8 2f 38 00 00       	call   f2b6 <_ZNSt7__cxx1112basic_stringIcSt11char_traitsIcESaIcEE10_M_disposeEv>
    ba87:	e9 54 ff ff ff       	jmp    b9e0 <_ZN7testing8internal24XmlUnitTestResultPrinter31OutputXmlTestSuiteForTestResultEPSoRKNS_10TestResultE.cold+0x36>
    ba8c:	48 89 ef             	mov    %rbp,%rdi
    ba8f:	48 89 dd             	mov    %rbx,%rbp
    ba92:	e8 1f 38 00 00       	call   f2b6 <_ZNSt7__cxx1112basic_stringIcSt11char_traitsIcESaIcEE10_M_disposeEv>
    ba97:	4c 89 ef             	mov    %r13,%rdi
    ba9a:	e8 17 38 00 00       	call   f2b6 <_ZNSt7__cxx1112basic_stringIcSt11char_traitsIcESaIcEE10_M_disposeEv>
    ba9f:	e9 3c ff ff ff       	jmp    b9e0 <_ZN7testing8internal24XmlUnitTestResultPrinter31OutputXmlTestSuiteForTestResultEPSoRKNS_10TestResultE.cold+0x36>
    baa4:	48 89 ef             	mov    %rbp,%rdi
    baa7:	48 89 dd             	mov    %rbx,%rbp
    baaa:	e8 07 38 00 00       	call   f2b6 <_ZNSt7__cxx1112basic_stringIcSt11char_traitsIcESaIcEE10_M_disposeEv>
    baaf:	4c 89 ef             	mov    %r13,%rdi
    bab2:	e8 ff 37 00 00       	call   f2b6 <_ZNSt7__cxx1112basic_stringIcSt11char_traitsIcESaIcEE10_M_disposeEv>
    bab7:	e9 24 ff ff ff       	jmp    b9e0 <_ZN7testing8internal24XmlUnitTestResultPrinter31OutputXmlTestSuiteForTestResultEPSoRKNS_10TestResultE.cold+0x36>
    babc:	48 89 ef             	mov    %rbp,%rdi
    babf:	48 89 dd             	mov    %rbx,%rbp
    bac2:	e8 ef 37 00 00       	call   f2b6 <_ZNSt7__cxx1112basic_stringIcSt11char_traitsIcESaIcEE10_M_disposeEv>
    bac7:	4c 89 ef             	mov    %r13,%rdi
    baca:	e8 e7 37 00 00       	call   f2b6 <_ZNSt7__cxx1112basic_stringIcSt11char_traitsIcESaIcEE10_M_disposeEv>
    bacf:	e9 0c ff ff ff       	jmp    b9e0 <_ZN7testing8internal24XmlUnitTestResultPrinter31OutputXmlTestSuiteForTestResultEPSoRKNS_10TestResultE.cold+0x36>
    bad4:	48 89 ef             	mov    %rbp,%rdi
    bad7:	48 89 dd             	mov    %rbx,%rbp
    bada:	e8 d7 37 00 00       	call   f2b6 <_ZNSt7__cxx1112basic_stringIcSt11char_traitsIcESaIcEE10_M_disposeEv>
    badf:	4c 89 ef             	mov    %r13,%rdi
    bae2:	e8 cf 37 00 00       	call   f2b6 <_ZNSt7__cxx1112basic_stringIcSt11char_traitsIcESaIcEE10_M_disposeEv>
    bae7:	e9 f4 fe ff ff       	jmp    b9e0 <_ZN7testing8internal24XmlUnitTestResultPrinter31OutputXmlTestSuiteForTestResultEPSoRKNS_10TestResultE.cold+0x36>
    baec:	48 89 ef             	mov    %rbp,%rdi
    baef:	48 89 dd             	mov    %rbx,%rbp
    baf2:	e8 bf 37 00 00       	call   f2b6 <_ZNSt7__cxx1112basic_stringIcSt11char_traitsIcESaIcEE10_M_disposeEv>
    baf7:	4c 89 ef             	mov    %r13,%rdi
    bafa:	e8 b7 37 00 00       	call   f2b6 <_ZNSt7__cxx1112basic_stringIcSt11char_traitsIcESaIcEE10_M_disposeEv>
    baff:	e9 dc fe ff ff       	jmp    b9e0 <_ZN7testing8internal24XmlUnitTestResultPrinter31OutputXmlTestSuiteForTestResultEPSoRKNS_10TestResultE.cold+0x36>

000000000000bb04 <_ZN7testing8internal24XmlUnitTestResultPrinter17OutputXmlTestInfoEPSoPKcRKNS_8TestInfoE.cold>:
    bb04:	48 89 ef             	mov    %rbp,%rdi
    bb07:	e8 aa 37 00 00       	call   f2b6 <_ZNSt7__cxx1112basic_stringIcSt11char_traitsIcESaIcEE10_M_disposeEv>
    bb0c:	4c 89 e7             	mov    %r12,%rdi
    bb0f:	e8 a2 37 00 00       	call   f2b6 <_ZNSt7__cxx1112basic_stringIcSt11char_traitsIcESaIcEE10_M_disposeEv>
    bb14:	4c 89 f7             	mov    %r14,%rdi
    bb17:	e8 9a 37 00 00       	call   f2b6 <_ZNSt7__cxx1112basic_stringIcSt11char_traitsIcESaIcEE10_M_disposeEv>
    bb1c:	48 89 df             	mov    %rbx,%rdi
    bb1f:	e8 1c eb ff ff       	call   a640 <_Unwind_Resume@plt>
    bb24:	4c 89 e7             	mov    %r12,%rdi
    bb27:	e8 8a 37 00 00       	call   f2b6 <_ZNSt7__cxx1112basic_stringIcSt11char_traitsIcESaIcEE10_M_disposeEv>
    bb2c:	48 89 ef             	mov    %rbp,%rdi
    bb2f:	e8 82 37 00 00       	call   f2b6 <_ZNSt7__cxx1112basic_stringIcSt11char_traitsIcESaIcEE10_M_disposeEv>
    bb34:	eb de                	jmp    bb14 <_ZN7testing8internal24XmlUnitTestResultPrinter17OutputXmlTestInfoEPSoPKcRKNS_8TestInfoE.cold+0x10>
    bb36:	4c 89 e7             	mov    %r12,%rdi
    bb39:	e8 78 37 00 00       	call   f2b6 <_ZNSt7__cxx1112basic_stringIcSt11char_traitsIcESaIcEE10_M_disposeEv>
    bb3e:	48 89 ef             	mov    %rbp,%rdi
    bb41:	e8 70 37 00 00       	call   f2b6 <_ZNSt7__cxx1112basic_stringIcSt11char_traitsIcESaIcEE10_M_disposeEv>
    bb46:	eb cc                	jmp    bb14 <_ZN7testing8internal24XmlUnitTestResultPrinter17OutputXmlTestInfoEPSoPKcRKNS_8TestInfoE.cold+0x10>
    bb48:	48 89 ef             	mov    %rbp,%rdi
    bb4b:	e8 66 37 00 00       	call   f2b6 <_ZNSt7__cxx1112basic_stringIcSt11char_traitsIcESaIcEE10_M_disposeEv>
    bb50:	4c 89 e7             	mov    %r12,%rdi
    bb53:	e8 5e 37 00 00       	call   f2b6 <_ZNSt7__cxx1112basic_stringIcSt11char_traitsIcESaIcEE10_M_disposeEv>
    bb58:	eb ba                	jmp    bb14 <_ZN7testing8internal24XmlUnitTestResultPrinter17OutputXmlTestInfoEPSoPKcRKNS_8TestInfoE.cold+0x10>
    bb5a:	48 89 ef             	mov    %rbp,%rdi
    bb5d:	e8 54 37 00 00       	call   f2b6 <_ZNSt7__cxx1112basic_stringIcSt11char_traitsIcESaIcEE10_M_disposeEv>
    bb62:	4c 89 e7             	mov    %r12,%rdi
    bb65:	e8 4c 37 00 00       	call   f2b6 <_ZNSt7__cxx1112basic_stringIcSt11char_traitsIcESaIcEE10_M_disposeEv>
    bb6a:	eb a8                	jmp    bb14 <_ZN7testing8internal24XmlUnitTestResultPrinter17OutputXmlTestInfoEPSoPKcRKNS_8TestInfoE.cold+0x10>
    bb6c:	4c 89 e7             	mov    %r12,%rdi
    bb6f:	e8 42 37 00 00       	call   f2b6 <_ZNSt7__cxx1112basic_stringIcSt11char_traitsIcESaIcEE10_M_disposeEv>
    bb74:	48 89 ef             	mov    %rbp,%rdi
    bb77:	e8 3a 37 00 00       	call   f2b6 <_ZNSt7__cxx1112basic_stringIcSt11char_traitsIcESaIcEE10_M_disposeEv>
    bb7c:	eb 96                	jmp    bb14 <_ZN7testing8internal24XmlUnitTestResultPrinter17OutputXmlTestInfoEPSoPKcRKNS_8TestInfoE.cold+0x10>
    bb7e:	4c 89 e7             	mov    %r12,%rdi
    bb81:	e8 30 37 00 00       	call   f2b6 <_ZNSt7__cxx1112basic_stringIcSt11char_traitsIcESaIcEE10_M_disposeEv>
    bb86:	48 89 ef             	mov    %rbp,%rdi
    bb89:	e8 28 37 00 00       	call   f2b6 <_ZNSt7__cxx1112basic_stringIcSt11char_traitsIcESaIcEE10_M_disposeEv>
    bb8e:	eb 84                	jmp    bb14 <_ZN7testing8internal24XmlUnitTestResultPrinter17OutputXmlTestInfoEPSoPKcRKNS_8TestInfoE.cold+0x10>
    bb90:	4c 89 e7             	mov    %r12,%rdi
    bb93:	e8 1e 37 00 00       	call   f2b6 <_ZNSt7__cxx1112basic_stringIcSt11char_traitsIcESaIcEE10_M_disposeEv>
    bb98:	48 89 ef             	mov    %rbp,%rdi
    bb9b:	e8 16 37 00 00       	call   f2b6 <_ZNSt7__cxx1112basic_stringIcSt11char_traitsIcESaIcEE10_M_disposeEv>
    bba0:	e9 6f ff ff ff       	jmp    bb14 <_ZN7testing8internal24XmlUnitTestResultPrinter17OutputXmlTestInfoEPSoPKcRKNS_8TestInfoE.cold+0x10>
    bba5:	4c 89 e7             	mov    %r12,%rdi
    bba8:	e8 09 37 00 00       	call   f2b6 <_ZNSt7__cxx1112basic_stringIcSt11char_traitsIcESaIcEE10_M_disposeEv>
    bbad:	48 89 ef             	mov    %rbp,%rdi
    bbb0:	e8 01 37 00 00       	call   f2b6 <_ZNSt7__cxx1112basic_stringIcSt11char_traitsIcESaIcEE10_M_disposeEv>
    bbb5:	e9 5a ff ff ff       	jmp    bb14 <_ZN7testing8internal24XmlUnitTestResultPrinter17OutputXmlTestInfoEPSoPKcRKNS_8TestInfoE.cold+0x10>
    bbba:	4c 89 e7             	mov    %r12,%rdi
    bbbd:	e8 f4 36 00 00       	call   f2b6 <_ZNSt7__cxx1112basic_stringIcSt11char_traitsIcESaIcEE10_M_disposeEv>
    bbc2:	48 89 ef             	mov    %rbp,%rdi
    bbc5:	e8 ec 36 00 00       	call   f2b6 <_ZNSt7__cxx1112basic_stringIcSt11char_traitsIcESaIcEE10_M_disposeEv>
    bbca:	e9 45 ff ff ff       	jmp    bb14 <_ZN7testing8internal24XmlUnitTestResultPrinter17OutputXmlTestInfoEPSoPKcRKNS_8TestInfoE.cold+0x10>
    bbcf:	90                   	nop

000000000000bbd0 <_ZN7testing8internal24XmlUnitTestResultPrinter17PrintXmlTestSuiteEPSoRKNS_9TestSuiteE.cold>:
    bbd0:	4c 89 ef             	mov    %r13,%rdi
    bbd3:	e8 de 36 00 00       	call   f2b6 <_ZNSt7__cxx1112basic_stringIcSt11char_traitsIcESaIcEE10_M_disposeEv>
    bbd8:	4c 89 e7             	mov    %r12,%rdi
    bbdb:	e8 d6 36 00 00       	call   f2b6 <_ZNSt7__cxx1112basic_stringIcSt11char_traitsIcESaIcEE10_M_disposeEv>
    bbe0:	4c 89 f7             	mov    %r14,%rdi
    bbe3:	e8 ce 36 00 00       	call   f2b6 <_ZNSt7__cxx1112basic_stringIcSt11char_traitsIcESaIcEE10_M_disposeEv>
    bbe8:	48 89 ef             	mov    %rbp,%rdi
    bbeb:	e8 50 ea ff ff       	call   a640 <_Unwind_Resume@plt>
    bbf0:	4c 89 e7             	mov    %r12,%rdi
    bbf3:	e8 be 36 00 00       	call   f2b6 <_ZNSt7__cxx1112basic_stringIcSt11char_traitsIcESaIcEE10_M_disposeEv>
    bbf8:	4c 89 ef             	mov    %r13,%rdi
    bbfb:	e8 b6 36 00 00       	call   f2b6 <_ZNSt7__cxx1112basic_stringIcSt11char_traitsIcESaIcEE10_M_disposeEv>
    bc00:	eb de                	jmp    bbe0 <_ZN7testing8internal24XmlUnitTestResultPrinter17PrintXmlTestSuiteEPSoRKNS_9TestSuiteE.cold+0x10>
    bc02:	4c 89 e7             	mov    %r12,%rdi
    bc05:	e8 ac 36 00 00       	call   f2b6 <_ZNSt7__cxx1112basic_stringIcSt11char_traitsIcESaIcEE10_M_disposeEv>
    bc0a:	eb ec                	jmp    bbf8 <_ZN7testing8internal24XmlUnitTestResultPrinter17PrintXmlTestSuiteEPSoRKNS_9TestSuiteE.cold+0x28>
    bc0c:	4c 89 ef             	mov    %r13,%rdi
    bc0f:	e8 a2 36 00 00       	call   f2b6 <_ZNSt7__cxx1112basic_stringIcSt11char_traitsIcESaIcEE10_M_disposeEv>
    bc14:	eb c2                	jmp    bbd8 <_ZN7testing8internal24XmlUnitTestResultPrinter17PrintXmlTestSuiteEPSoRKNS_9TestSuiteE.cold+0x8>
    bc16:	4c 89 e7             	mov    %r12,%rdi
    bc19:	e8 98 36 00 00       	call   f2b6 <_ZNSt7__cxx1112basic_stringIcSt11char_traitsIcESaIcEE10_M_disposeEv>
    bc1e:	eb d8                	jmp    bbf8 <_ZN7testing8internal24XmlUnitTestResultPrinter17PrintXmlTestSuiteEPSoRKNS_9TestSuiteE.cold+0x28>
    bc20:	4c 89 e7             	mov    %r12,%rdi
    bc23:	e8 8e 36 00 00       	call   f2b6 <_ZNSt7__cxx1112basic_stringIcSt11char_traitsIcESaIcEE10_M_disposeEv>
    bc28:	eb ce                	jmp    bbf8 <_ZN7testing8internal24XmlUnitTestResultPrinter17PrintXmlTestSuiteEPSoRKNS_9TestSuiteE.cold+0x28>
    bc2a:	4c 89 e7             	mov    %r12,%rdi
    bc2d:	e8 84 36 00 00       	call   f2b6 <_ZNSt7__cxx1112basic_stringIcSt11char_traitsIcESaIcEE10_M_disposeEv>
    bc32:	eb c4                	jmp    bbf8 <_ZN7testing8internal24XmlUnitTestResultPrinter17PrintXmlTestSuiteEPSoRKNS_9TestSuiteE.cold+0x28>
    bc34:	4c 89 e7             	mov    %r12,%rdi
    bc37:	e8 7a 36 00 00       	call   f2b6 <_ZNSt7__cxx1112basic_stringIcSt11char_traitsIcESaIcEE10_M_disposeEv>
    bc3c:	eb ba                	jmp    bbf8 <_ZN7testing8internal24XmlUnitTestResultPrinter17PrintXmlTestSuiteEPSoRKNS_9TestSuiteE.cold+0x28>

000000000000bc3e <_ZN7testing8internal24XmlUnitTestResultPrinter16PrintXmlUnitTestEPSoRKNS_8UnitTestE.cold>:
    bc3e:	4c 89 f7             	mov    %r14,%rdi
    bc41:	e8 70 36 00 00       	call   f2b6 <_ZNSt7__cxx1112basic_stringIcSt11char_traitsIcESaIcEE10_M_disposeEv>
    bc46:	4c 89 ef             	mov    %r13,%rdi
    bc49:	e8 68 36 00 00       	call   f2b6 <_ZNSt7__cxx1112basic_stringIcSt11char_traitsIcESaIcEE10_M_disposeEv>
    bc4e:	4c 89 ff             	mov    %r15,%rdi
    bc51:	e8 60 36 00 00       	call   f2b6 <_ZNSt7__cxx1112basic_stringIcSt11char_traitsIcESaIcEE10_M_disposeEv>
    bc56:	48 89 ef             	mov    %rbp,%rdi
    bc59:	e8 e2 e9 ff ff       	call   a640 <_Unwind_Resume@plt>
    bc5e:	4c 89 ef             	mov    %r13,%rdi
    bc61:	e8 50 36 00 00       	call   f2b6 <_ZNSt7__cxx1112basic_stringIcSt11char_traitsIcESaIcEE10_M_disposeEv>
    bc66:	eb e6                	jmp    bc4e <_ZN7testing8internal24XmlUnitTestResultPrinter16PrintXmlUnitTestEPSoRKNS_8UnitTestE.cold+0x10>
    bc68:	4c 89 ef             	mov    %r13,%rdi
    bc6b:	e8 46 36 00 00       	call   f2b6 <_ZNSt7__cxx1112basic_stringIcSt11char_traitsIcESaIcEE10_M_disposeEv>
    bc70:	4c 89 f7             	mov    %r14,%rdi
    bc73:	e8 3e 36 00 00       	call   f2b6 <_ZNSt7__cxx1112basic_stringIcSt11char_traitsIcESaIcEE10_M_disposeEv>
    bc78:	eb d4                	jmp    bc4e <_ZN7testing8internal24XmlUnitTestResultPrinter16PrintXmlUnitTestEPSoRKNS_8UnitTestE.cold+0x10>
    bc7a:	4c 89 ef             	mov    %r13,%rdi
    bc7d:	e8 34 36 00 00       	call   f2b6 <_ZNSt7__cxx1112basic_stringIcSt11char_traitsIcESaIcEE10_M_disposeEv>
    bc82:	4c 89 f7             	mov    %r14,%rdi
    bc85:	e8 2c 36 00 00       	call   f2b6 <_ZNSt7__cxx1112basic_stringIcSt11char_traitsIcESaIcEE10_M_disposeEv>
    bc8a:	eb c2                	jmp    bc4e <_ZN7testing8internal24XmlUnitTestResultPrinter16PrintXmlUnitTestEPSoRKNS_8UnitTestE.cold+0x10>
    bc8c:	4c 89 ef             	mov    %r13,%rdi
    bc8f:	e8 22 36 00 00       	call   f2b6 <_ZNSt7__cxx1112basic_stringIcSt11char_traitsIcESaIcEE10_M_disposeEv>
    bc94:	4c 89 f7             	mov    %r14,%rdi
    bc97:	e8 1a 36 00 00       	call   f2b6 <_ZNSt7__cxx1112basic_stringIcSt11char_traitsIcESaIcEE10_M_disposeEv>
    bc9c:	eb b0                	jmp    bc4e <_ZN7testing8internal24XmlUnitTestResultPrinter16PrintXmlUnitTestEPSoRKNS_8UnitTestE.cold+0x10>
    bc9e:	4c 89 f7             	mov    %r14,%rdi
    bca1:	e8 10 36 00 00       	call   f2b6 <_ZNSt7__cxx1112basic_stringIcSt11char_traitsIcESaIcEE10_M_disposeEv>
    bca6:	4c 89 ef             	mov    %r13,%rdi
    bca9:	e8 08 36 00 00       	call   f2b6 <_ZNSt7__cxx1112basic_stringIcSt11char_traitsIcESaIcEE10_M_disposeEv>
    bcae:	eb 9e                	jmp    bc4e <_ZN7testing8internal24XmlUnitTestResultPrinter16PrintXmlUnitTestEPSoRKNS_8UnitTestE.cold+0x10>
    bcb0:	4c 89 ef             	mov    %r13,%rdi
    bcb3:	e8 fe 35 00 00       	call   f2b6 <_ZNSt7__cxx1112basic_stringIcSt11char_traitsIcESaIcEE10_M_disposeEv>
    bcb8:	4c 89 f7             	mov    %r14,%rdi
    bcbb:	e8 f6 35 00 00       	call   f2b6 <_ZNSt7__cxx1112basic_stringIcSt11char_traitsIcESaIcEE10_M_disposeEv>
    bcc0:	eb 8c                	jmp    bc4e <_ZN7testing8internal24XmlUnitTestResultPrinter16PrintXmlUnitTestEPSoRKNS_8UnitTestE.cold+0x10>
    bcc2:	4c 89 ef             	mov    %r13,%rdi
    bcc5:	e8 ec 35 00 00       	call   f2b6 <_ZNSt7__cxx1112basic_stringIcSt11char_traitsIcESaIcEE10_M_disposeEv>
    bcca:	4c 89 f7             	mov    %r14,%rdi
    bccd:	e8 e4 35 00 00       	call   f2b6 <_ZNSt7__cxx1112basic_stringIcSt11char_traitsIcESaIcEE10_M_disposeEv>
    bcd2:	e9 77 ff ff ff       	jmp    bc4e <_ZN7testing8internal24XmlUnitTestResultPrinter16PrintXmlUnitTestEPSoRKNS_8UnitTestE.cold+0x10>
    bcd7:	4c 89 ef             	mov    %r13,%rdi
    bcda:	e8 d7 35 00 00       	call   f2b6 <_ZNSt7__cxx1112basic_stringIcSt11char_traitsIcESaIcEE10_M_disposeEv>
    bcdf:	4c 89 f7             	mov    %r14,%rdi
    bce2:	e8 cf 35 00 00       	call   f2b6 <_ZNSt7__cxx1112basic_stringIcSt11char_traitsIcESaIcEE10_M_disposeEv>
    bce7:	e9 62 ff ff ff       	jmp    bc4e <_ZN7testing8internal24XmlUnitTestResultPrinter16PrintXmlUnitTestEPSoRKNS_8UnitTestE.cold+0x10>

000000000000bcec <_ZN7testing8internal24XmlUnitTestResultPrinter18OnTestIterationEndERKNS_8UnitTestEi.cold>:
    bcec:	4c 89 ef             	mov    %r13,%rdi
    bcef:	e8 c2 35 00 00       	call   f2b6 <_ZNSt7__cxx1112basic_stringIcSt11char_traitsIcESaIcEE10_M_disposeEv>
    bcf4:	48 8b 7c 24 08       	mov    0x8(%rsp),%rdi
    bcf9:	e8 82 e2 ff ff       	call   9f80 <_ZNSt7__cxx1118basic_stringstreamIcSt11char_traitsIcESaIcEED1Ev@plt>
    bcfe:	48 89 ef             	mov    %rbp,%rdi
    bd01:	e8 3a e9 ff ff       	call   a640 <_Unwind_Resume@plt>
    bd06:	48 8b 7c 24 48       	mov    0x48(%rsp),%rdi
    bd0b:	e8 30 f4 02 00       	call   3b140 <_ZNSt7__cxx1115basic_stringbufIcSt11char_traitsIcESaIcEED1Ev>
    bd10:	48 8b 7c 24 08       	mov    0x8(%rsp),%rdi
    bd15:	48 8d 73 08          	lea    0x8(%rbx),%rsi
    bd19:	e8 52 df ff ff       	call   9c70 <_ZNSdD2Ev@plt>
    bd1e:	48 8b 05 13 42 05 00 	mov    0x54213(%rip),%rax        # 5ff38 <_ZTVSt9basic_iosIcSt11char_traitsIcEE@GLIBCXX_3.4>
    bd25:	4c 89 e7             	mov    %r12,%rdi
    bd28:	48 83 c0 10          	add    $0x10,%rax
    bd2c:	48 89 84 24 f0 00 00 	mov    %rax,0xf0(%rsp)
    bd33:	00 
    bd34:	e8 27 e0 ff ff       	call   9d60 <_ZNSt8ios_baseD2Ev@plt>
    bd39:	48 89 ef             	mov    %rbp,%rdi
    bd3c:	e8 ff e8 ff ff       	call   a640 <_Unwind_Resume@plt>
    bd41:	48 8b 55 e8          	mov    -0x18(%rbp),%rdx
    bd45:	48 8b 4c 24 10       	mov    0x10(%rsp),%rcx
    bd4a:	48 89 6c 24 70       	mov    %rbp,0x70(%rsp)
    bd4f:	48 89 c5             	mov    %rax,%rbp
    bd52:	48 89 4c 14 70       	mov    %rcx,0x70(%rsp,%rdx,1)
    bd57:	48 c7 44 24 78 00 00 	movq   $0x0,0x78(%rsp)
    bd5e:	00 00 
    bd60:	eb bc                	jmp    bd1e <_ZN7testing8internal24XmlUnitTestResultPrinter18OnTestIterationEndERKNS_8UnitTestEi.cold+0x32>

000000000000bd62 <_ZN7testing8internal24XmlUnitTestResultPrinter17PrintXmlTestsListEPSoRKSt6vectorIPNS_9TestSuiteESaIS5_EE.cold>:
    bd62:	4c 89 ef             	mov    %r13,%rdi
    bd65:	e8 4c 35 00 00       	call   f2b6 <_ZNSt7__cxx1112basic_stringIcSt11char_traitsIcESaIcEE10_M_disposeEv>
    bd6a:	4c 89 e7             	mov    %r12,%rdi
    bd6d:	e8 44 35 00 00       	call   f2b6 <_ZNSt7__cxx1112basic_stringIcSt11char_traitsIcESaIcEE10_M_disposeEv>
    bd72:	4c 89 ff             	mov    %r15,%rdi
    bd75:	e8 3c 35 00 00       	call   f2b6 <_ZNSt7__cxx1112basic_stringIcSt11char_traitsIcESaIcEE10_M_disposeEv>
    bd7a:	48 89 ef             	mov    %rbp,%rdi
    bd7d:	e8 be e8 ff ff       	call   a640 <_Unwind_Resume@plt>
    bd82:	4c 89 e7             	mov    %r12,%rdi
    bd85:	e8 2c 35 00 00       	call   f2b6 <_ZNSt7__cxx1112basic_stringIcSt11char_traitsIcESaIcEE10_M_disposeEv>
    bd8a:	4c 89 ef             	mov    %r13,%rdi
    bd8d:	e8 24 35 00 00       	call   f2b6 <_ZNSt7__cxx1112basic_stringIcSt11char_traitsIcESaIcEE10_M_disposeEv>
    bd92:	eb de                	jmp    bd72 <_ZN7testing8internal24XmlUnitTestResultPrinter17PrintXmlTestsListEPSoRKSt6vectorIPNS_9TestSuiteESaIS5_EE.cold+0x10>

000000000000bd94 <_ZN7testing8internal24XmlUnitTestResultPrinter23ListTestsMatchingFilterERKSt6vectorIPNS_9TestSuiteESaIS4_EE.cold>:
    bd94:	4c 89 ef             	mov    %r13,%rdi
    bd97:	e8 1a 35 00 00       	call   f2b6 <_ZNSt7__cxx1112basic_stringIcSt11char_traitsIcESaIcEE10_M_disposeEv>
    bd9c:	48 8b 7c 24 08       	mov    0x8(%rsp),%rdi
    bda1:	e8 da e1 ff ff       	call   9f80 <_ZNSt7__cxx1118basic_stringstreamIcSt11char_traitsIcESaIcEED1Ev@plt>
    bda6:	48 89 ef             	mov    %rbp,%rdi
    bda9:	e8 92 e8 ff ff       	call   a640 <_Unwind_Resume@plt>
    bdae:	48 8b 7c 24 48       	mov    0x48(%rsp),%rdi
    bdb3:	e8 88 f3 02 00       	call   3b140 <_ZNSt7__cxx1115basic_stringbufIcSt11char_traitsIcESaIcEED1Ev>
    bdb8:	48 8b 7c 24 08       	mov    0x8(%rsp),%rdi
    bdbd:	48 8d 73 08          	lea    0x8(%rbx),%rsi
    bdc1:	e8 aa de ff ff       	call   9c70 <_ZNSdD2Ev@plt>
    bdc6:	48 8b 05 6b 41 05 00 	mov    0x5416b(%rip),%rax        # 5ff38 <_ZTVSt9basic_iosIcSt11char_traitsIcEE@GLIBCXX_3.4>
    bdcd:	4c 89 e7             	mov    %r12,%rdi
    bdd0:	48 83 c0 10          	add    $0x10,%rax
    bdd4:	48 89 84 24 f0 00 00 	mov    %rax,0xf0(%rsp)
    bddb:	00 
    bddc:	e8 7f df ff ff       	call   9d60 <_ZNSt8ios_baseD2Ev@plt>
    bde1:	48 89 ef             	mov    %rbp,%rdi
    bde4:	e8 57 e8 ff ff       	call   a640 <_Unwind_Resume@plt>
    bde9:	48 8b 55 e8          	mov    -0x18(%rbp),%rdx
    bded:	48 8b 4c 24 10       	mov    0x10(%rsp),%rcx
    bdf2:	48 89 6c 24 70       	mov    %rbp,0x70(%rsp)
    bdf7:	48 89 c5             	mov    %rax,%rbp
    bdfa:	48 89 4c 14 70       	mov    %rcx,0x70(%rsp,%rdx,1)
    bdff:	48 c7 44 24 78 00 00 	movq   $0x0,0x78(%rsp)
    be06:	00 00 
    be08:	eb bc                	jmp    bdc6 <_ZN7testing8internal24XmlUnitTestResultPrinter23ListTestsMatchingFilterERKSt6vectorIPNS_9TestSuiteESaIS4_EE.cold+0x32>

000000000000be0a <_ZN7testing8internal25JsonUnitTestResultPrinter13OutputJsonKeyEPSoRKNSt7__cxx1112basic_stringIcSt11char_traitsIcESaIcEEESA_SA_SA_b.cold>:
    be0a:	48 89 df             	mov    %rbx,%rdi
    be0d:	e8 a4 34 00 00       	call   f2b6 <_ZNSt7__cxx1112basic_stringIcSt11char_traitsIcESaIcEE10_M_disposeEv>
    be12:	4c 89 ff             	mov    %r15,%rdi
    be15:	e8 c6 e5 02 00       	call   3a3e0 <_ZNSt6vectorINSt7__cxx1112basic_stringIcSt11char_traitsIcESaIcEEESaIS5_EED1Ev>
    be1a:	48 89 ef             	mov    %rbp,%rdi
    be1d:	e8 1e e8 ff ff       	call   a640 <_Unwind_Resume@plt>
    be22:	48 8b 7c 24 10       	mov    0x10(%rsp),%rdi
    be27:	e8 54 c4 00 00       	call   18280 <_ZN7testing8internal8GTestLogD1Ev>
    be2c:	eb e4                	jmp    be12 <_ZN7testing8internal25JsonUnitTestResultPrinter13OutputJsonKeyEPSoRKNSt7__cxx1112basic_stringIcSt11char_traitsIcESaIcEEESA_SA_SA_b.cold+0x8>

000000000000be2e <_ZN7testing8internal25JsonUnitTestResultPrinter13OutputJsonKeyEPSoRKNSt7__cxx1112basic_stringIcSt11char_traitsIcESaIcEEESA_iSA_b.cold>:
    be2e:	4c 89 e7             	mov    %r12,%rdi
    be31:	e8 80 34 00 00       	call   f2b6 <_ZNSt7__cxx1112basic_stringIcSt11char_traitsIcESaIcEE10_M_disposeEv>
    be36:	4c 89 f7             	mov    %r14,%rdi
    be39:	e8 a2 e5 02 00       	call   3a3e0 <_ZNSt6vectorINSt7__cxx1112basic_stringIcSt11char_traitsIcESaIcEEESaIS5_EED1Ev>
    be3e:	48 89 ef             	mov    %rbp,%rdi
    be41:	e8 fa e7 ff ff       	call   a640 <_Unwind_Resume@plt>
    be46:	4c 89 ff             	mov    %r15,%rdi
    be49:	e8 32 c4 00 00       	call   18280 <_ZN7testing8internal8GTestLogD1Ev>
    be4e:	eb e6                	jmp    be36 <_ZN7testing8internal25JsonUnitTestResultPrinter13OutputJsonKeyEPSoRKNSt7__cxx1112basic_stringIcSt11char_traitsIcESaIcEEESA_iSA_b.cold+0x8>

000000000000be50 <_ZN7testing8internal25JsonUnitTestResultPrinter32OutputJsonTestSuiteForTestResultEPSoRKNS_10TestResultE.cold>:
    be50:	48 89 ef             	mov    %rbp,%rdi
    be53:	48 89 dd             	mov    %rbx,%rbp
    be56:	e8 5b 34 00 00       	call   f2b6 <_ZNSt7__cxx1112basic_stringIcSt11char_traitsIcESaIcEE10_M_disposeEv>
    be5b:	4c 89 e7             	mov    %r12,%rdi
    be5e:	e8 53 34 00 00       	call   f2b6 <_ZNSt7__cxx1112basic_stringIcSt11char_traitsIcESaIcEE10_M_disposeEv>
    be63:	48 89 ef             	mov    %rbp,%rdi
    be66:	e8 d5 e7 ff ff       	call   a640 <_Unwind_Resume@plt>
    be6b:	48 89 ef             	mov    %rbp,%rdi
    be6e:	48 89 dd             	mov    %rbx,%rbp
    be71:	e8 40 34 00 00       	call   f2b6 <_ZNSt7__cxx1112basic_stringIcSt11char_traitsIcESaIcEE10_M_disposeEv>
    be76:	4c 89 e7             	mov    %r12,%rdi
    be79:	e8 38 34 00 00       	call   f2b6 <_ZNSt7__cxx1112basic_stringIcSt11char_traitsIcESaIcEE10_M_disposeEv>
    be7e:	48 89 ef             	mov    %rbp,%rdi
    be81:	e8 ba e7 ff ff       	call   a640 <_Unwind_Resume@plt>
    be86:	4c 89 ef             	mov    %r13,%rdi
    be89:	e8 28 34 00 00       	call   f2b6 <_ZNSt7__cxx1112basic_stringIcSt11char_traitsIcESaIcEE10_M_disposeEv>
    be8e:	4c 89 e7             	mov    %r12,%rdi
    be91:	e8 20 34 00 00       	call   f2b6 <_ZNSt7__cxx1112basic_stringIcSt11char_traitsIcESaIcEE10_M_disposeEv>
    be96:	48 89 ef             	mov    %rbp,%rdi
    be99:	48 89 dd             	mov    %rbx,%rbp
    be9c:	e8 15 34 00 00       	call   f2b6 <_ZNSt7__cxx1112basic_stringIcSt11char_traitsIcESaIcEE10_M_disposeEv>
    bea1:	4c 89 f7             	mov    %r14,%rdi
    bea4:	e8 0d 34 00 00       	call   f2b6 <_ZNSt7__cxx1112basic_stringIcSt11char_traitsIcESaIcEE10_M_disposeEv>
    bea9:	48 89 ef             	mov    %rbp,%rdi
    beac:	e8 8f e7 ff ff       	call   a640 <_Unwind_Resume@plt>
    beb1:	4c 89 e7             	mov    %r12,%rdi
    beb4:	e8 fd 33 00 00       	call   f2b6 <_ZNSt7__cxx1112basic_stringIcSt11char_traitsIcESaIcEE10_M_disposeEv>
    beb9:	48 89 ef             	mov    %rbp,%rdi
    bebc:	48 89 dd             	mov    %rbx,%rbp
    bebf:	e8 f2 33 00 00       	call   f2b6 <_ZNSt7__cxx1112basic_stringIcSt11char_traitsIcESaIcEE10_M_disposeEv>
    bec4:	4c 89 f7             	mov    %r14,%rdi
    bec7:	e8 ea 33 00 00       	call   f2b6 <_ZNSt7__cxx1112basic_stringIcSt11char_traitsIcESaIcEE10_M_disposeEv>
    becc:	4c 89 ef             	mov    %r13,%rdi
    becf:	e8 e2 33 00 00       	call   f2b6 <_ZNSt7__cxx1112basic_stringIcSt11char_traitsIcESaIcEE10_M_disposeEv>
    bed4:	48 89 ef             	mov    %rbp,%rdi
    bed7:	e8 64 e7 ff ff       	call   a640 <_Unwind_Resume@plt>
    bedc:	4c 89 e7             	mov    %r12,%rdi
    bedf:	e8 d2 33 00 00       	call   f2b6 <_ZNSt7__cxx1112basic_stringIcSt11char_traitsIcESaIcEE10_M_disposeEv>
    bee4:	48 89 ef             	mov    %rbp,%rdi
    bee7:	48 89 dd             	mov    %rbx,%rbp
    beea:	e8 c7 33 00 00       	call   f2b6 <_ZNSt7__cxx1112basic_stringIcSt11char_traitsIcESaIcEE10_M_disposeEv>
    beef:	4c 89 f7             	mov    %r14,%rdi
    bef2:	e8 bf 33 00 00       	call   f2b6 <_ZNSt7__cxx1112basic_stringIcSt11char_traitsIcESaIcEE10_M_disposeEv>
    bef7:	4c 89 ef             	mov    %r13,%rdi
    befa:	e8 b7 33 00 00       	call   f2b6 <_ZNSt7__cxx1112basic_stringIcSt11char_traitsIcESaIcEE10_M_disposeEv>
    beff:	48 89 ef             	mov    %rbp,%rdi
    bf02:	e8 39 e7 ff ff       	call   a640 <_Unwind_Resume@plt>
    bf07:	4c 89 ef             	mov    %r13,%rdi
    bf0a:	e8 a7 33 00 00       	call   f2b6 <_ZNSt7__cxx1112basic_stringIcSt11char_traitsIcESaIcEE10_M_disposeEv>
    bf0f:	4c 89 e7             	mov    %r12,%rdi
    bf12:	e8 9f 33 00 00       	call   f2b6 <_ZNSt7__cxx1112basic_stringIcSt11char_traitsIcESaIcEE10_M_disposeEv>
    bf17:	48 89 ef             	mov    %rbp,%rdi
    bf1a:	48 89 dd             	mov    %rbx,%rbp
    bf1d:	e8 94 33 00 00       	call   f2b6 <_ZNSt7__cxx1112basic_stringIcSt11char_traitsIcESaIcEE10_M_disposeEv>
    bf22:	4c 89 f7             	mov    %r14,%rdi
    bf25:	e8 8c 33 00 00       	call   f2b6 <_ZNSt7__cxx1112basic_stringIcSt11char_traitsIcESaIcEE10_M_disposeEv>
    bf2a:	48 89 ef             	mov    %rbp,%rdi
    bf2d:	e8 0e e7 ff ff       	call   a640 <_Unwind_Resume@plt>
    bf32:	4c 89 ef             	mov    %r13,%rdi
    bf35:	e8 7c 33 00 00       	call   f2b6 <_ZNSt7__cxx1112basic_stringIcSt11char_traitsIcESaIcEE10_M_disposeEv>
    bf3a:	4c 89 e7             	mov    %r12,%rdi
    bf3d:	e8 74 33 00 00       	call   f2b6 <_ZNSt7__cxx1112basic_stringIcSt11char_traitsIcESaIcEE10_M_disposeEv>
    bf42:	48 89 ef             	mov    %rbp,%rdi
    bf45:	48 89 dd             	mov    %rbx,%rbp
    bf48:	e8 69 33 00 00       	call   f2b6 <_ZNSt7__cxx1112basic_stringIcSt11char_traitsIcESaIcEE10_M_disposeEv>
    bf4d:	4c 89 f7             	mov    %r14,%rdi
    bf50:	e8 61 33 00 00       	call   f2b6 <_ZNSt7__cxx1112basic_stringIcSt11char_traitsIcESaIcEE10_M_disposeEv>
    bf55:	48 89 ef             	mov    %rbp,%rdi
    bf58:	e8 e3 e6 ff ff       	call   a640 <_Unwind_Resume@plt>
    bf5d:	4c 89 ef             	mov    %r13,%rdi
    bf60:	e8 51 33 00 00       	call   f2b6 <_ZNSt7__cxx1112basic_stringIcSt11char_traitsIcESaIcEE10_M_disposeEv>
    bf65:	4c 89 e7             	mov    %r12,%rdi
    bf68:	e8 49 33 00 00       	call   f2b6 <_ZNSt7__cxx1112basic_stringIcSt11char_traitsIcESaIcEE10_M_disposeEv>
    bf6d:	48 89 ef             	mov    %rbp,%rdi
    bf70:	48 89 dd             	mov    %rbx,%rbp
    bf73:	e8 3e 33 00 00       	call   f2b6 <_ZNSt7__cxx1112basic_stringIcSt11char_traitsIcESaIcEE10_M_disposeEv>
    bf78:	4c 89 f7             	mov    %r14,%rdi
    bf7b:	e8 36 33 00 00       	call   f2b6 <_ZNSt7__cxx1112basic_stringIcSt11char_traitsIcESaIcEE10_M_disposeEv>
    bf80:	48 89 ef             	mov    %rbp,%rdi
    bf83:	e8 b8 e6 ff ff       	call   a640 <_Unwind_Resume@plt>
    bf88:	48 89 ef             	mov    %rbp,%rdi
    bf8b:	e8 26 33 00 00       	call   f2b6 <_ZNSt7__cxx1112basic_stringIcSt11char_traitsIcESaIcEE10_M_disposeEv>
    bf90:	4c 89 e7             	mov    %r12,%rdi
    bf93:	e8 a8 e6 ff ff       	call   a640 <_Unwind_Resume@plt>
    bf98:	48 89 ef             	mov    %rbp,%rdi
    bf9b:	e8 16 33 00 00       	call   f2b6 <_ZNSt7__cxx1112basic_stringIcSt11char_traitsIcESaIcEE10_M_disposeEv>
    bfa0:	4c 89 e7             	mov    %r12,%rdi
    bfa3:	e8 98 e6 ff ff       	call   a640 <_Unwind_Resume@plt>
    bfa8:	4c 89 e7             	mov    %r12,%rdi
    bfab:	e8 06 33 00 00       	call   f2b6 <_ZNSt7__cxx1112basic_stringIcSt11char_traitsIcESaIcEE10_M_disposeEv>
    bfb0:	48 89 ef             	mov    %rbp,%rdi
    bfb3:	48 89 dd             	mov    %rbx,%rbp
    bfb6:	e8 fb 32 00 00       	call   f2b6 <_ZNSt7__cxx1112basic_stringIcSt11char_traitsIcESaIcEE10_M_disposeEv>
    bfbb:	4c 89 f7             	mov    %r14,%rdi
    bfbe:	e8 f3 32 00 00       	call   f2b6 <_ZNSt7__cxx1112basic_stringIcSt11char_traitsIcESaIcEE10_M_disposeEv>
    bfc3:	4c 89 ef             	mov    %r13,%rdi
    bfc6:	e8 eb 32 00 00       	call   f2b6 <_ZNSt7__cxx1112basic_stringIcSt11char_traitsIcESaIcEE10_M_disposeEv>
    bfcb:	48 89 ef             	mov    %rbp,%rdi
    bfce:	e8 6d e6 ff ff       	call   a640 <_Unwind_Resume@plt>
    bfd3:	4c 89 e7             	mov    %r12,%rdi
    bfd6:	e8 db 32 00 00       	call   f2b6 <_ZNSt7__cxx1112basic_stringIcSt11char_traitsIcESaIcEE10_M_disposeEv>
    bfdb:	48 89 ef             	mov    %rbp,%rdi
    bfde:	48 89 dd             	mov    %rbx,%rbp
    bfe1:	e8 d0 32 00 00       	call   f2b6 <_ZNSt7__cxx1112basic_stringIcSt11char_traitsIcESaIcEE10_M_disposeEv>
    bfe6:	4c 89 f7             	mov    %r14,%rdi
    bfe9:	e8 c8 32 00 00       	call   f2b6 <_ZNSt7__cxx1112basic_stringIcSt11char_traitsIcESaIcEE10_M_disposeEv>
    bfee:	4c 89 ef             	mov    %r13,%rdi
    bff1:	e8 c0 32 00 00       	call   f2b6 <_ZNSt7__cxx1112basic_stringIcSt11char_traitsIcESaIcEE10_M_disposeEv>
    bff6:	48 89 ef             	mov    %rbp,%rdi
    bff9:	e8 42 e6 ff ff       	call   a640 <_Unwind_Resume@plt>
    bffe:	4c 89 e7             	mov    %r12,%rdi
    c001:	e8 b0 32 00 00       	call   f2b6 <_ZNSt7__cxx1112basic_stringIcSt11char_traitsIcESaIcEE10_M_disposeEv>
    c006:	48 89 ef             	mov    %rbp,%rdi
    c009:	48 89 dd             	mov    %rbx,%rbp
    c00c:	e8 a5 32 00 00       	call   f2b6 <_ZNSt7__cxx1112basic_stringIcSt11char_traitsIcESaIcEE10_M_disposeEv>
    c011:	4c 89 ef             	mov    %r13,%rdi
    c014:	e8 9d 32 00 00       	call   f2b6 <_ZNSt7__cxx1112basic_stringIcSt11char_traitsIcESaIcEE10_M_disposeEv>
    c019:	48 89 ef             	mov    %rbp,%rdi
    c01c:	e8 1f e6 ff ff       	call   a640 <_Unwind_Resume@plt>
    c021:	4c 89 e7             	mov    %r12,%rdi
    c024:	e8 8d 32 00 00       	call   f2b6 <_ZNSt7__cxx1112basic_stringIcSt11char_traitsIcESaIcEE10_M_disposeEv>
    c029:	48 89 ef             	mov    %rbp,%rdi
    c02c:	48 89 dd             	mov    %rbx,%rbp
    c02f:	e8 82 32 00 00       	call   f2b6 <_ZNSt7__cxx1112basic_stringIcSt11char_traitsIcESaIcEE10_M_disposeEv>
    c034:	4c 89 ef             	mov    %r13,%rdi
    c037:	e8 7a 32 00 00       	call   f2b6 <_ZNSt7__cxx1112basic_stringIcSt11char_traitsIcESaIcEE10_M_disposeEv>
    c03c:	48 89 ef             	mov    %rbp,%rdi
    c03f:	e8 fc e5 ff ff       	call   a640 <_Unwind_Resume@plt>
    c044:	4c 89 e7             	mov    %r12,%rdi
    c047:	e8 6a 32 00 00       	call   f2b6 <_ZNSt7__cxx1112basic_stringIcSt11char_traitsIcESaIcEE10_M_disposeEv>
    c04c:	48 89 ef             	mov    %rbp,%rdi
    c04f:	48 89 dd             	mov    %rbx,%rbp
    c052:	e8 5f 32 00 00       	call   f2b6 <_ZNSt7__cxx1112basic_stringIcSt11char_traitsIcESaIcEE10_M_disposeEv>
    c057:	4c 89 ef             	mov    %r13,%rdi
    c05a:	e8 57 32 00 00       	call   f2b6 <_ZNSt7__cxx1112basic_stringIcSt11char_traitsIcESaIcEE10_M_disposeEv>
    c05f:	48 89 ef             	mov    %rbp,%rdi
    c062:	e8 d9 e5 ff ff       	call   a640 <_Unwind_Resume@plt>
    c067:	4c 89 ef             	mov    %r13,%rdi
    c06a:	e8 47 32 00 00       	call   f2b6 <_ZNSt7__cxx1112basic_stringIcSt11char_traitsIcESaIcEE10_M_disposeEv>
    c06f:	4c 89 e7             	mov    %r12,%rdi
    c072:	e8 3f 32 00 00       	call   f2b6 <_ZNSt7__cxx1112basic_stringIcSt11char_traitsIcESaIcEE10_M_disposeEv>
    c077:	48 89 ef             	mov    %rbp,%rdi
    c07a:	48 89 dd             	mov    %rbx,%rbp
    c07d:	e8 34 32 00 00       	call   f2b6 <_ZNSt7__cxx1112basic_stringIcSt11char_traitsIcESaIcEE10_M_disposeEv>
    c082:	4c 89 f7             	mov    %r14,%rdi
    c085:	e8 2c 32 00 00       	call   f2b6 <_ZNSt7__cxx1112basic_stringIcSt11char_traitsIcESaIcEE10_M_disposeEv>
    c08a:	48 89 ef             	mov    %rbp,%rdi
    c08d:	e8 ae e5 ff ff       	call   a640 <_Unwind_Resume@plt>
    c092:	48 89 ef             	mov    %rbp,%rdi
    c095:	e8 1c 32 00 00       	call   f2b6 <_ZNSt7__cxx1112basic_stringIcSt11char_traitsIcESaIcEE10_M_disposeEv>
    c09a:	4c 89 e7             	mov    %r12,%rdi
    c09d:	e8 9e e5 ff ff       	call   a640 <_Unwind_Resume@plt>
    c0a2:	4c 89 e7             	mov    %r12,%rdi
    c0a5:	e8 0c 32 00 00       	call   f2b6 <_ZNSt7__cxx1112basic_stringIcSt11char_traitsIcESaIcEE10_M_disposeEv>
    c0aa:	48 89 ef             	mov    %rbp,%rdi
    c0ad:	48 89 dd             	mov    %rbx,%rbp
    c0b0:	e8 01 32 00 00       	call   f2b6 <_ZNSt7__cxx1112basic_stringIcSt11char_traitsIcESaIcEE10_M_disposeEv>
    c0b5:	4c 89 ef             	mov    %r13,%rdi
    c0b8:	e8 f9 31 00 00       	call   f2b6 <_ZNSt7__cxx1112basic_stringIcSt11char_traitsIcESaIcEE10_M_disposeEv>
    c0bd:	48 89 ef             	mov    %rbp,%rdi
    c0c0:	e8 7b e5 ff ff       	call   a640 <_Unwind_Resume@plt>
    c0c5:	4c 89 e7             	mov    %r12,%rdi
    c0c8:	e8 e9 31 00 00       	call   f2b6 <_ZNSt7__cxx1112basic_stringIcSt11char_traitsIcESaIcEE10_M_disposeEv>
    c0cd:	48 89 ef             	mov    %rbp,%rdi
    c0d0:	48 89 dd             	mov    %rbx,%rbp
    c0d3:	e8 de 31 00 00       	call   f2b6 <_ZNSt7__cxx1112basic_stringIcSt11char_traitsIcESaIcEE10_M_disposeEv>
    c0d8:	4c 89 ef             	mov    %r13,%rdi
    c0db:	e8 d6 31 00 00       	call   f2b6 <_ZNSt7__cxx1112basic_stringIcSt11char_traitsIcESaIcEE10_M_disposeEv>
    c0e0:	48 89 ef             	mov    %rbp,%rdi
    c0e3:	e8 58 e5 ff ff       	call   a640 <_Unwind_Resume@plt>

000000000000c0e8 <_ZN7testing8internal25JsonUnitTestResultPrinter18OutputJsonTestInfoEPSoPKcRKNS_8TestInfoE.cold>:
    c0e8:	4c 89 e7             	mov    %r12,%rdi
    c0eb:	e8 c6 31 00 00       	call   f2b6 <_ZNSt7__cxx1112basic_stringIcSt11char_traitsIcESaIcEE10_M_disposeEv>
    c0f0:	48 89 ef             	mov    %rbp,%rdi
    c0f3:	e8 be 31 00 00       	call   f2b6 <_ZNSt7__cxx1112basic_stringIcSt11char_traitsIcESaIcEE10_M_disposeEv>
    c0f8:	4c 89 f7             	mov    %r14,%rdi
    c0fb:	e8 b6 31 00 00       	call   f2b6 <_ZNSt7__cxx1112basic_stringIcSt11char_traitsIcESaIcEE10_M_disposeEv>
    c100:	4c 89 ff             	mov    %r15,%rdi
    c103:	e8 ae 31 00 00       	call   f2b6 <_ZNSt7__cxx1112basic_stringIcSt11char_traitsIcESaIcEE10_M_disposeEv>
    c108:	48 89 df             	mov    %rbx,%rdi
    c10b:	e8 30 e5 ff ff       	call   a640 <_Unwind_Resume@plt>
    c110:	4c 89 e7             	mov    %r12,%rdi
    c113:	e8 9e 31 00 00       	call   f2b6 <_ZNSt7__cxx1112basic_stringIcSt11char_traitsIcESaIcEE10_M_disposeEv>
    c118:	eb d6                	jmp    c0f0 <_ZN7testing8internal25JsonUnitTestResultPrinter18OutputJsonTestInfoEPSoPKcRKNS_8TestInfoE.cold+0x8>
    c11a:	4c 89 e7             	mov    %r12,%rdi
    c11d:	e8 94 31 00 00       	call   f2b6 <_ZNSt7__cxx1112basic_stringIcSt11char_traitsIcESaIcEE10_M_disposeEv>
    c122:	eb cc                	jmp    c0f0 <_ZN7testing8internal25JsonUnitTestResultPrinter18OutputJsonTestInfoEPSoPKcRKNS_8TestInfoE.cold+0x8>
    c124:	4c 89 e7             	mov    %r12,%rdi
    c127:	e8 8a 31 00 00       	call   f2b6 <_ZNSt7__cxx1112basic_stringIcSt11char_traitsIcESaIcEE10_M_disposeEv>
    c12c:	eb c2                	jmp    c0f0 <_ZN7testing8internal25JsonUnitTestResultPrinter18OutputJsonTestInfoEPSoPKcRKNS_8TestInfoE.cold+0x8>
    c12e:	4c 89 e7             	mov    %r12,%rdi
    c131:	e8 80 31 00 00       	call   f2b6 <_ZNSt7__cxx1112basic_stringIcSt11char_traitsIcESaIcEE10_M_disposeEv>
    c136:	eb b8                	jmp    c0f0 <_ZN7testing8internal25JsonUnitTestResultPrinter18OutputJsonTestInfoEPSoPKcRKNS_8TestInfoE.cold+0x8>
    c138:	4c 89 e7             	mov    %r12,%rdi
    c13b:	e8 76 31 00 00       	call   f2b6 <_ZNSt7__cxx1112basic_stringIcSt11char_traitsIcESaIcEE10_M_disposeEv>
    c140:	eb ae                	jmp    c0f0 <_ZN7testing8internal25JsonUnitTestResultPrinter18OutputJsonTestInfoEPSoPKcRKNS_8TestInfoE.cold+0x8>
    c142:	48 89 ef             	mov    %rbp,%rdi
    c145:	e8 6c 31 00 00       	call   f2b6 <_ZNSt7__cxx1112basic_stringIcSt11char_traitsIcESaIcEE10_M_disposeEv>
    c14a:	4c 89 e7             	mov    %r12,%rdi
    c14d:	e8 64 31 00 00       	call   f2b6 <_ZNSt7__cxx1112basic_stringIcSt11char_traitsIcESaIcEE10_M_disposeEv>
    c152:	eb a4                	jmp    c0f8 <_ZN7testing8internal25JsonUnitTestResultPrinter18OutputJsonTestInfoEPSoPKcRKNS_8TestInfoE.cold+0x10>
    c154:	48 89 ef             	mov    %rbp,%rdi
    c157:	e8 5a 31 00 00       	call   f2b6 <_ZNSt7__cxx1112basic_stringIcSt11char_traitsIcESaIcEE10_M_disposeEv>
    c15c:	eb ec                	jmp    c14a <_ZN7testing8internal25JsonUnitTestResultPrinter18OutputJsonTestInfoEPSoPKcRKNS_8TestInfoE.cold+0x62>
    c15e:	4c 89 e7             	mov    %r12,%rdi
    c161:	e8 50 31 00 00       	call   f2b6 <_ZNSt7__cxx1112basic_stringIcSt11char_traitsIcESaIcEE10_M_disposeEv>
    c166:	eb 88                	jmp    c0f0 <_ZN7testing8internal25JsonUnitTestResultPrinter18OutputJsonTestInfoEPSoPKcRKNS_8TestInfoE.cold+0x8>

000000000000c168 <_ZN7testing8internal25JsonUnitTestResultPrinter18PrintJsonTestSuiteEPSoRKNS_9TestSuiteE.cold>:
    c168:	4c 89 e7             	mov    %r12,%rdi
    c16b:	e8 46 31 00 00       	call   f2b6 <_ZNSt7__cxx1112basic_stringIcSt11char_traitsIcESaIcEE10_M_disposeEv>
    c170:	4c 89 ef             	mov    %r13,%rdi
    c173:	e8 3e 31 00 00       	call   f2b6 <_ZNSt7__cxx1112basic_stringIcSt11char_traitsIcESaIcEE10_M_disposeEv>
    c178:	4c 89 ff             	mov    %r15,%rdi
    c17b:	e8 36 31 00 00       	call   f2b6 <_ZNSt7__cxx1112basic_stringIcSt11char_traitsIcESaIcEE10_M_disposeEv>
    c180:	48 8b 7c 24 18       	mov    0x18(%rsp),%rdi
    c185:	e8 2c 31 00 00       	call   f2b6 <_ZNSt7__cxx1112basic_stringIcSt11char_traitsIcESaIcEE10_M_disposeEv>
    c18a:	48 89 df             	mov    %rbx,%rdi
    c18d:	e8 ae e4 ff ff       	call   a640 <_Unwind_Resume@plt>
    c192:	4c 89 ef             	mov    %r13,%rdi
    c195:	e8 1c 31 00 00       	call   f2b6 <_ZNSt7__cxx1112basic_stringIcSt11char_traitsIcESaIcEE10_M_disposeEv>
    c19a:	4c 89 e7             	mov    %r12,%rdi
    c19d:	e8 14 31 00 00       	call   f2b6 <_ZNSt7__cxx1112basic_stringIcSt11char_traitsIcESaIcEE10_M_disposeEv>
    c1a2:	eb d4                	jmp    c178 <_ZN7testing8internal25JsonUnitTestResultPrinter18PrintJsonTestSuiteEPSoRKNS_9TestSuiteE.cold+0x10>
    c1a4:	4c 89 ef             	mov    %r13,%rdi
    c1a7:	e8 0a 31 00 00       	call   f2b6 <_ZNSt7__cxx1112basic_stringIcSt11char_traitsIcESaIcEE10_M_disposeEv>
    c1ac:	eb ec                	jmp    c19a <_ZN7testing8internal25JsonUnitTestResultPrinter18PrintJsonTestSuiteEPSoRKNS_9TestSuiteE.cold+0x32>

000000000000c1ae <_ZN7testing8internal25JsonUnitTestResultPrinter17PrintJsonUnitTestEPSoRKNS_8UnitTestE.cold>:
    c1ae:	48 89 df             	mov    %rbx,%rdi
    c1b1:	48 89 eb             	mov    %rbp,%rbx
    c1b4:	e8 fd 30 00 00       	call   f2b6 <_ZNSt7__cxx1112basic_stringIcSt11char_traitsIcESaIcEE10_M_disposeEv>
    c1b9:	4c 89 ef             	mov    %r13,%rdi
    c1bc:	e8 f5 30 00 00       	call   f2b6 <_ZNSt7__cxx1112basic_stringIcSt11char_traitsIcESaIcEE10_M_disposeEv>
    c1c1:	4c 89 f7             	mov    %r14,%rdi
    c1c4:	e8 ed 30 00 00       	call   f2b6 <_ZNSt7__cxx1112basic_stringIcSt11char_traitsIcESaIcEE10_M_disposeEv>
    c1c9:	4c 89 ff             	mov    %r15,%rdi
    c1cc:	e8 e5 30 00 00       	call   f2b6 <_ZNSt7__cxx1112basic_stringIcSt11char_traitsIcESaIcEE10_M_disposeEv>
    c1d1:	48 89 df             	mov    %rbx,%rdi
    c1d4:	e8 67 e4 ff ff       	call   a640 <_Unwind_Resume@plt>
    c1d9:	4c 89 ef             	mov    %r13,%rdi
    c1dc:	e8 d5 30 00 00       	call   f2b6 <_ZNSt7__cxx1112basic_stringIcSt11char_traitsIcESaIcEE10_M_disposeEv>
    c1e1:	48 89 df             	mov    %rbx,%rdi
    c1e4:	48 89 eb             	mov    %rbp,%rbx
    c1e7:	e8 ca 30 00 00       	call   f2b6 <_ZNSt7__cxx1112basic_stringIcSt11char_traitsIcESaIcEE10_M_disposeEv>
    c1ec:	eb d3                	jmp    c1c1 <_ZN7testing8internal25JsonUnitTestResultPrinter17PrintJsonUnitTestEPSoRKNS_8UnitTestE.cold+0x13>
    c1ee:	4c 89 ef             	mov    %r13,%rdi
    c1f1:	e8 c0 30 00 00       	call   f2b6 <_ZNSt7__cxx1112basic_stringIcSt11char_traitsIcESaIcEE10_M_disposeEv>
    c1f6:	eb e9                	jmp    c1e1 <_ZN7testing8internal25JsonUnitTestResultPrinter17PrintJsonUnitTestEPSoRKNS_8UnitTestE.cold+0x33>

000000000000c1f8 <_ZN7testing8internal25JsonUnitTestResultPrinter18OnTestIterationEndERKNS_8UnitTestEi.cold>:
    c1f8:	4c 89 ef             	mov    %r13,%rdi
    c1fb:	e8 b6 30 00 00       	call   f2b6 <_ZNSt7__cxx1112basic_stringIcSt11char_traitsIcESaIcEE10_M_disposeEv>
    c200:	48 8b 7c 24 08       	mov    0x8(%rsp),%rdi
    c205:	e8 76 dd ff ff       	call   9f80 <_ZNSt7__cxx1118basic_stringstreamIcSt11char_traitsIcESaIcEED1Ev@plt>
    c20a:	48 89 ef             	mov    %rbp,%rdi
    c20d:	e8 2e e4 ff ff       	call   a640 <_Unwind_Resume@plt>
    c212:	48 8b 7c 24 48       	mov    0x48(%rsp),%rdi
    c217:	e8 24 ef 02 00       	call   3b140 <_ZNSt7__cxx1115basic_stringbufIcSt11char_traitsIcESaIcEED1Ev>
    c21c:	48 8b 7c 24 08       	mov    0x8(%rsp),%rdi
    c221:	48 8d 73 08          	lea    0x8(%rbx),%rsi
    c225:	e8 46 da ff ff       	call   9c70 <_ZNSdD2Ev@plt>
    c22a:	48 8b 05 07 3d 05 00 	mov    0x53d07(%rip),%rax        # 5ff38 <_ZTVSt9basic_iosIcSt11char_traitsIcEE@GLIBCXX_3.4>
    c231:	4c 89 e7             	mov    %r12,%rdi
    c234:	48 83 c0 10          	add    $0x10,%rax
    c238:	48 89 84 24 f0 00 00 	mov    %rax,0xf0(%rsp)
    c23f:	00 
    c240:	e8 1b db ff ff       	call   9d60 <_ZNSt8ios_baseD2Ev@plt>
    c245:	48 89 ef             	mov    %rbp,%rdi
    c248:	e8 f3 e3 ff ff       	call   a640 <_Unwind_Resume@plt>
    c24d:	48 8b 55 e8          	mov    -0x18(%rbp),%rdx
    c251:	48 8b 4c 24 10       	mov    0x10(%rsp),%rcx
    c256:	48 89 6c 24 70       	mov    %rbp,0x70(%rsp)
    c25b:	48 89 c5             	mov    %rax,%rbp
    c25e:	48 89 4c 14 70       	mov    %rcx,0x70(%rsp,%rdx,1)
    c263:	48 c7 44 24 78 00 00 	movq   $0x0,0x78(%rsp)
    c26a:	00 00 
    c26c:	eb bc                	jmp    c22a <_ZN7testing8internal25JsonUnitTestResultPrinter18OnTestIterationEndERKNS_8UnitTestEi.cold+0x32>

000000000000c26e <_ZN7testing8internal25JsonUnitTestResultPrinter17PrintJsonTestListEPSoRKSt6vectorIPNS_9TestSuiteESaIS5_EE.cold>:
    c26e:	4c 89 ef             	mov    %r13,%rdi
    c271:	e8 40 30 00 00       	call   f2b6 <_ZNSt7__cxx1112basic_stringIcSt11char_traitsIcESaIcEE10_M_disposeEv>
    c276:	4c 89 f7             	mov    %r14,%rdi
    c279:	e8 38 30 00 00       	call   f2b6 <_ZNSt7__cxx1112basic_stringIcSt11char_traitsIcESaIcEE10_M_disposeEv>
    c27e:	4c 89 ff             	mov    %r15,%rdi
    c281:	e8 30 30 00 00       	call   f2b6 <_ZNSt7__cxx1112basic_stringIcSt11char_traitsIcESaIcEE10_M_disposeEv>
    c286:	48 8b 3c 24          	mov    (%rsp),%rdi
    c28a:	e8 27 30 00 00       	call   f2b6 <_ZNSt7__cxx1112basic_stringIcSt11char_traitsIcESaIcEE10_M_disposeEv>
    c28f:	48 89 df             	mov    %rbx,%rdi
    c292:	e8 a9 e3 ff ff       	call   a640 <_Unwind_Resume@plt>
    c297:	4c 89 f7             	mov    %r14,%rdi
    c29a:	e8 17 30 00 00       	call   f2b6 <_ZNSt7__cxx1112basic_stringIcSt11char_traitsIcESaIcEE10_M_disposeEv>
    c29f:	eb dd                	jmp    c27e <_ZN7testing8internal25JsonUnitTestResultPrinter17PrintJsonTestListEPSoRKSt6vectorIPNS_9TestSuiteESaIS5_EE.cold+0x10>
    c2a1:	90                   	nop

000000000000c2a2 <_ZN7testing9TestSuiteC2EPKcS2_PFvvES4_.cold>:
    c2a2:	48 8d 7b 48          	lea    0x48(%rbx),%rdi
    c2a6:	e8 95 32 03 00       	call   3f540 <_ZNSt12_Vector_baseIiSaIiEED1Ev>
    c2ab:	48 8b 7b 30          	mov    0x30(%rbx),%rdi
    c2af:	48 8b 73 40          	mov    0x40(%rbx),%rsi
    c2b3:	48 29 fe             	sub    %rdi,%rsi
    c2b6:	48 85 ff             	test   %rdi,%rdi
    c2b9:	74 05                	je     c2c0 <_ZN7testing9TestSuiteC2EPKcS2_PFvvES4_.cold+0x1e>
    c2bb:	e8 70 de ff ff       	call   a130 <_ZdlPvm@plt>
    c2c0:	48 8b 7b 28          	mov    0x28(%rbx),%rdi
    c2c4:	48 85 ff             	test   %rdi,%rdi
    c2c7:	74 05                	je     c2ce <_ZN7testing9TestSuiteC2EPKcS2_PFvvES4_.cold+0x2c>
    c2c9:	e8 62 72 00 00       	call   13530 <_ZNKSt14default_deleteIKNSt7__cxx1112basic_stringIcSt11char_traitsIcESaIcEEEEclEPS6_.part.0>
    c2ce:	4c 89 ff             	mov    %r15,%rdi
    c2d1:	e8 e0 2f 00 00       	call   f2b6 <_ZNSt7__cxx1112basic_stringIcSt11char_traitsIcESaIcEE10_M_disposeEv>
    c2d6:	48 89 ef             	mov    %rbp,%rdi
    c2d9:	e8 62 e3 ff ff       	call   a640 <_Unwind_Resume@plt>
    c2de:	48 89 ef             	mov    %rbp,%rdi
    c2e1:	be 20 00 00 00       	mov    $0x20,%esi
    c2e6:	48 89 dd             	mov    %rbx,%rbp
    c2e9:	e8 42 de ff ff       	call   a130 <_ZdlPvm@plt>
    c2ee:	eb de                	jmp    c2ce <_ZN7testing9TestSuiteC2EPKcS2_PFvvES4_.cold+0x2c>

000000000000c2f0 <_ZN7testing8internal13DeathTestImpl6PassedEb.cold>:
    c2f0:	48 8b 7c 24 08       	mov    0x8(%rsp),%rdi
    c2f5:	e8 bc 2f 00 00       	call   f2b6 <_ZNSt7__cxx1112basic_stringIcSt11char_traitsIcESaIcEE10_M_disposeEv>
    c2fa:	48 89 df             	mov    %rbx,%rdi
    c2fd:	4c 89 e3             	mov    %r12,%rbx
    c300:	e8 b1 2f 00 00       	call   f2b6 <_ZNSt7__cxx1112basic_stringIcSt11char_traitsIcESaIcEE10_M_disposeEv>
    c305:	48 89 ef             	mov    %rbp,%rdi
    c308:	e8 b3 d9 ff ff       	call   9cc0 <_ZNSt7__cxx1119basic_ostringstreamIcSt11char_traitsIcESaIcEED1Ev@plt>
    c30d:	4c 89 ef             	mov    %r13,%rdi
    c310:	e8 db ee 02 00       	call   3b1f0 <_ZNSt10unique_ptrINSt7__cxx1118basic_stringstreamIcSt11char_traitsIcESaIcEEESt14default_deleteIS5_EED1Ev>
    c315:	4c 89 f7             	mov    %r14,%rdi
    c318:	e8 99 2f 00 00       	call   f2b6 <_ZNSt7__cxx1112basic_stringIcSt11char_traitsIcESaIcEE10_M_disposeEv>
    c31d:	48 89 df             	mov    %rbx,%rdi
    c320:	e8 1b e3 ff ff       	call   a640 <_Unwind_Resume@plt>
    c325:	48 89 ef             	mov    %rbp,%rdi
    c328:	e8 89 2f 00 00       	call   f2b6 <_ZNSt7__cxx1112basic_stringIcSt11char_traitsIcESaIcEE10_M_disposeEv>
    c32d:	48 8b 7c 24 08       	mov    0x8(%rsp),%rdi
    c332:	e8 7f 2f 00 00       	call   f2b6 <_ZNSt7__cxx1112basic_stringIcSt11char_traitsIcESaIcEE10_M_disposeEv>
    c337:	eb d4                	jmp    c30d <_ZN7testing8internal13DeathTestImpl6PassedEb.cold+0x1d>
    c339:	48 89 ef             	mov    %rbp,%rdi
    c33c:	e8 af ee 02 00       	call   3b1f0 <_ZNSt10unique_ptrINSt7__cxx1118basic_stringstreamIcSt11char_traitsIcESaIcEEESt14default_deleteIS5_EED1Ev>
    c341:	eb ca                	jmp    c30d <_ZN7testing8internal13DeathTestImpl6PassedEb.cold+0x1d>
    c343:	4c 89 e7             	mov    %r12,%rdi
    c346:	e8 35 bf 00 00       	call   18280 <_ZN7testing8internal8GTestLogD1Ev>
    c34b:	eb c0                	jmp    c30d <_ZN7testing8internal13DeathTestImpl6PassedEb.cold+0x1d>
    c34d:	48 89 ef             	mov    %rbp,%rdi
    c350:	e8 61 2f 00 00       	call   f2b6 <_ZNSt7__cxx1112basic_stringIcSt11char_traitsIcESaIcEE10_M_disposeEv>
    c355:	eb b6                	jmp    c30d <_ZN7testing8internal13DeathTestImpl6PassedEb.cold+0x1d>
    c357:	48 89 ef             	mov    %rbp,%rdi
    c35a:	e8 21 bf 00 00       	call   18280 <_ZN7testing8internal8GTestLogD1Ev>
    c35f:	eb ac                	jmp    c30d <_ZN7testing8internal13DeathTestImpl6PassedEb.cold+0x1d>
    c361:	90                   	nop

000000000000c362 <_ZN7testing7MatcherIRKNSt7__cxx1112basic_stringIcSt11char_traitsIcESaIcEEEEC2EPKc.cold>:
    c362:	48 8b 7c 24 08       	mov    0x8(%rsp),%rdi
    c367:	49 8d 45 10          	lea    0x10(%r13),%rax
    c36b:	48 89 44 24 10       	mov    %rax,0x10(%rsp)
    c370:	e8 2b 40 03 00       	call   403a0 <_ZN7testing8internal11MatcherBaseIRKNSt7__cxx1112basic_stringIcSt11char_traitsIcESaIcEEEE7DestroyEv>
    c375:	4c 89 ff             	mov    %r15,%rdi
    c378:	e8 39 2f 00 00       	call   f2b6 <_ZNSt7__cxx1112basic_stringIcSt11char_traitsIcESaIcEE10_M_disposeEv>
    c37d:	4c 89 f7             	mov    %r14,%rdi
    c380:	e8 31 2f 00 00       	call   f2b6 <_ZNSt7__cxx1112basic_stringIcSt11char_traitsIcESaIcEE10_M_disposeEv>
    c385:	49 8d 45 10          	lea    0x10(%r13),%rax
    c389:	48 89 ef             	mov    %rbp,%rdi
    c38c:	48 89 45 00          	mov    %rax,0x0(%rbp)
    c390:	e8 0b 40 03 00       	call   403a0 <_ZN7testing8internal11MatcherBaseIRKNSt7__cxx1112basic_stringIcSt11char_traitsIcESaIcEEEE7DestroyEv>
    c395:	4c 89 e7             	mov    %r12,%rdi
    c398:	e8 a3 e2 ff ff       	call   a640 <_Unwind_Resume@plt>
    c39d:	90                   	nop

000000000000c39e <_ZN7testing7MatcherIRKNSt7__cxx1112basic_stringIcSt11char_traitsIcESaIcEEEEC2ES8_.cold>:
    c39e:	48 8b 7c 24 08       	mov    0x8(%rsp),%rdi
    c3a3:	49 8d 45 10          	lea    0x10(%r13),%rax
    c3a7:	48 89 44 24 10       	mov    %rax,0x10(%rsp)
    c3ac:	e8 ef 3f 03 00       	call   403a0 <_ZN7testing8internal11MatcherBaseIRKNSt7__cxx1112basic_stringIcSt11char_traitsIcESaIcEEEE7DestroyEv>
    c3b1:	4c 89 ff             	mov    %r15,%rdi
    c3b4:	e8 fd 2e 00 00       	call   f2b6 <_ZNSt7__cxx1112basic_stringIcSt11char_traitsIcESaIcEE10_M_disposeEv>
    c3b9:	4c 89 f7             	mov    %r14,%rdi
    c3bc:	e8 f5 2e 00 00       	call   f2b6 <_ZNSt7__cxx1112basic_stringIcSt11char_traitsIcESaIcEE10_M_disposeEv>
    c3c1:	49 8d 45 10          	lea    0x10(%r13),%rax
    c3c5:	48 89 ef             	mov    %rbp,%rdi
    c3c8:	48 89 45 00          	mov    %rax,0x0(%rbp)
    c3cc:	e8 cf 3f 03 00       	call   403a0 <_ZN7testing8internal11MatcherBaseIRKNSt7__cxx1112basic_stringIcSt11char_traitsIcESaIcEEEE7DestroyEv>
    c3d1:	4c 89 e7             	mov    %r12,%rdi
    c3d4:	e8 67 e2 ff ff       	call   a640 <_Unwind_Resume@plt>
    c3d9:	90                   	nop

000000000000c3da <_ZN7testing7MatcherINSt7__cxx1112basic_stringIcSt11char_traitsIcESaIcEEEEC2ERKS6_.cold>:
    c3da:	48 8b 7c 24 08       	mov    0x8(%rsp),%rdi
    c3df:	49 8d 45 10          	lea    0x10(%r13),%rax
    c3e3:	48 89 44 24 10       	mov    %rax,0x10(%rsp)
    c3e8:	e8 f3 3f 03 00       	call   403e0 <_ZN7testing8internal11MatcherBaseINSt7__cxx1112basic_stringIcSt11char_traitsIcESaIcEEEE7DestroyEv>
    c3ed:	4c 89 ff             	mov    %r15,%rdi
    c3f0:	e8 c1 2e 00 00       	call   f2b6 <_ZNSt7__cxx1112basic_stringIcSt11char_traitsIcESaIcEE10_M_disposeEv>
    c3f5:	4c 89 f7             	mov    %r14,%rdi
    c3f8:	e8 b9 2e 00 00       	call   f2b6 <_ZNSt7__cxx1112basic_stringIcSt11char_traitsIcESaIcEE10_M_disposeEv>
    c3fd:	49 8d 45 10          	lea    0x10(%r13),%rax
    c401:	48 89 ef             	mov    %rbp,%rdi
    c404:	48 89 45 00          	mov    %rax,0x0(%rbp)
    c408:	e8 d3 3f 03 00       	call   403e0 <_ZN7testing8internal11MatcherBaseINSt7__cxx1112basic_stringIcSt11char_traitsIcESaIcEEEE7DestroyEv>
    c40d:	4c 89 e7             	mov    %r12,%rdi
    c410:	e8 2b e2 ff ff       	call   a640 <_Unwind_Resume@plt>
    c415:	90                   	nop

000000000000c416 <_ZN7testing7MatcherINSt7__cxx1112basic_stringIcSt11char_traitsIcESaIcEEEEC2EPKc.cold>:
    c416:	48 8b 7c 24 08       	mov    0x8(%rsp),%rdi
    c41b:	49 8d 45 10          	lea    0x10(%r13),%rax
    c41f:	48 89 44 24 10       	mov    %rax,0x10(%rsp)
    c424:	e8 b7 3f 03 00       	call   403e0 <_ZN7testing8internal11MatcherBaseINSt7__cxx1112basic_stringIcSt11char_traitsIcESaIcEEEE7DestroyEv>
    c429:	4c 89 ff             	mov    %r15,%rdi
    c42c:	e8 85 2e 00 00       	call   f2b6 <_ZNSt7__cxx1112basic_stringIcSt11char_traitsIcESaIcEE10_M_disposeEv>
    c431:	4c 89 f7             	mov    %r14,%rdi
    c434:	e8 7d 2e 00 00       	call   f2b6 <_ZNSt7__cxx1112basic_stringIcSt11char_traitsIcESaIcEE10_M_disposeEv>
    c439:	49 8d 45 10          	lea    0x10(%r13),%rax
    c43d:	48 89 ef             	mov    %rbp,%rdi
    c440:	48 89 45 00          	mov    %rax,0x0(%rbp)
    c444:	e8 97 3f 03 00       	call   403e0 <_ZN7testing8internal11MatcherBaseINSt7__cxx1112basic_stringIcSt11char_traitsIcESaIcEEEE7DestroyEv>
    c449:	4c 89 e7             	mov    %r12,%rdi
    c44c:	e8 ef e1 ff ff       	call   a640 <_Unwind_Resume@plt>
    c451:	90                   	nop

000000000000c452 <_ZN7testing7MatcherIRKSt17basic_string_viewIcSt11char_traitsIcEEEC2ERKNSt7__cxx1112basic_stringIcS3_SaIcEEE.cold>:
    c452:	48 8b 7c 24 08       	mov    0x8(%rsp),%rdi
    c457:	49 8d 45 10          	lea    0x10(%r13),%rax
    c45b:	48 89 44 24 10       	mov    %rax,0x10(%rsp)
    c460:	e8 bb 3f 03 00       	call   40420 <_ZN7testing8internal11MatcherBaseIRKSt17basic_string_viewIcSt11char_traitsIcEEE7DestroyEv>
    c465:	4c 89 ff             	mov    %r15,%rdi
    c468:	e8 49 2e 00 00       	call   f2b6 <_ZNSt7__cxx1112basic_stringIcSt11char_traitsIcESaIcEE10_M_disposeEv>
    c46d:	4c 89 f7             	mov    %r14,%rdi
    c470:	e8 41 2e 00 00       	call   f2b6 <_ZNSt7__cxx1112basic_stringIcSt11char_traitsIcESaIcEE10_M_disposeEv>
    c475:	49 8d 45 10          	lea    0x10(%r13),%rax
    c479:	48 89 ef             	mov    %rbp,%rdi
    c47c:	48 89 45 00          	mov    %rax,0x0(%rbp)
    c480:	e8 9b 3f 03 00       	call   40420 <_ZN7testing8internal11MatcherBaseIRKSt17basic_string_viewIcSt11char_traitsIcEEE7DestroyEv>
    c485:	4c 89 e7             	mov    %r12,%rdi
    c488:	e8 b3 e1 ff ff       	call   a640 <_Unwind_Resume@plt>
    c48d:	90                   	nop

000000000000c48e <_ZN7testing7MatcherIRKSt17basic_string_viewIcSt11char_traitsIcEEEC2EPKc.cold>:
    c48e:	48 8b 7c 24 08       	mov    0x8(%rsp),%rdi
    c493:	49 8d 45 10          	lea    0x10(%r13),%rax
    c497:	48 89 44 24 10       	mov    %rax,0x10(%rsp)
    c49c:	e8 7f 3f 03 00       	call   40420 <_ZN7testing8internal11MatcherBaseIRKSt17basic_string_viewIcSt11char_traitsIcEEE7DestroyEv>
    c4a1:	4c 89 ff             	mov    %r15,%rdi
    c4a4:	e8 0d 2e 00 00       	call   f2b6 <_ZNSt7__cxx1112basic_stringIcSt11char_traitsIcESaIcEE10_M_disposeEv>
    c4a9:	4c 89 f7             	mov    %r14,%rdi
    c4ac:	e8 05 2e 00 00       	call   f2b6 <_ZNSt7__cxx1112basic_stringIcSt11char_traitsIcESaIcEE10_M_disposeEv>
    c4b1:	49 8d 45 10          	lea    0x10(%r13),%rax
    c4b5:	48 89 ef             	mov    %rbp,%rdi
    c4b8:	48 89 45 00          	mov    %rax,0x0(%rbp)
    c4bc:	e8 5f 3f 03 00       	call   40420 <_ZN7testing8internal11MatcherBaseIRKSt17basic_string_viewIcSt11char_traitsIcEEE7DestroyEv>
    c4c1:	4c 89 e7             	mov    %r12,%rdi
    c4c4:	e8 77 e1 ff ff       	call   a640 <_Unwind_Resume@plt>
    c4c9:	90                   	nop

000000000000c4ca <_ZN7testing7MatcherIRKSt17basic_string_viewIcSt11char_traitsIcEEEC2ES4_.cold>:
    c4ca:	48 8b 7c 24 08       	mov    0x8(%rsp),%rdi
    c4cf:	49 8d 45 10          	lea    0x10(%r13),%rax
    c4d3:	48 89 44 24 10       	mov    %rax,0x10(%rsp)
    c4d8:	e8 43 3f 03 00       	call   40420 <_ZN7testing8internal11MatcherBaseIRKSt17basic_string_viewIcSt11char_traitsIcEEE7DestroyEv>
    c4dd:	4c 89 ff             	mov    %r15,%rdi
    c4e0:	e8 d1 2d 00 00       	call   f2b6 <_ZNSt7__cxx1112basic_stringIcSt11char_traitsIcESaIcEE10_M_disposeEv>
    c4e5:	4c 89 f7             	mov    %r14,%rdi
    c4e8:	e8 c9 2d 00 00       	call   f2b6 <_ZNSt7__cxx1112basic_stringIcSt11char_traitsIcESaIcEE10_M_disposeEv>
    c4ed:	49 8d 45 10          	lea    0x10(%r13),%rax
    c4f1:	48 89 ef             	mov    %rbp,%rdi
    c4f4:	48 89 45 00          	mov    %rax,0x0(%rbp)
    c4f8:	e8 23 3f 03 00       	call   40420 <_ZN7testing8internal11MatcherBaseIRKSt17basic_string_viewIcSt11char_traitsIcEEE7DestroyEv>
    c4fd:	4c 89 e7             	mov    %r12,%rdi
    c500:	e8 3b e1 ff ff       	call   a640 <_Unwind_Resume@plt>
    c505:	90                   	nop

000000000000c506 <_ZN7testing7MatcherISt17basic_string_viewIcSt11char_traitsIcEEEC2ERKNSt7__cxx1112basic_stringIcS3_SaIcEEE.cold>:
    c506:	48 8b 7c 24 08       	mov    0x8(%rsp),%rdi
    c50b:	49 8d 45 10          	lea    0x10(%r13),%rax
    c50f:	48 89 44 24 10       	mov    %rax,0x10(%rsp)
    c514:	e8 47 3f 03 00       	call   40460 <_ZN7testing8internal11MatcherBaseISt17basic_string_viewIcSt11char_traitsIcEEE7DestroyEv>
    c519:	4c 89 ff             	mov    %r15,%rdi
    c51c:	e8 95 2d 00 00       	call   f2b6 <_ZNSt7__cxx1112basic_stringIcSt11char_traitsIcESaIcEE10_M_disposeEv>
    c521:	4c 89 f7             	mov    %r14,%rdi
    c524:	e8 8d 2d 00 00       	call   f2b6 <_ZNSt7__cxx1112basic_stringIcSt11char_traitsIcESaIcEE10_M_disposeEv>
    c529:	49 8d 45 10          	lea    0x10(%r13),%rax
    c52d:	48 89 ef             	mov    %rbp,%rdi
    c530:	48 89 45 00          	mov    %rax,0x0(%rbp)
    c534:	e8 27 3f 03 00       	call   40460 <_ZN7testing8internal11MatcherBaseISt17basic_string_viewIcSt11char_traitsIcEEE7DestroyEv>
    c539:	4c 89 e7             	mov    %r12,%rdi
    c53c:	e8 ff e0 ff ff       	call   a640 <_Unwind_Resume@plt>
    c541:	90                   	nop

000000000000c542 <_ZN7testing7MatcherISt17basic_string_viewIcSt11char_traitsIcEEEC2EPKc.cold>:
    c542:	48 8b 7c 24 08       	mov    0x8(%rsp),%rdi
    c547:	49 8d 45 10          	lea    0x10(%r13),%rax
    c54b:	48 89 44 24 10       	mov    %rax,0x10(%rsp)
    c550:	e8 0b 3f 03 00       	call   40460 <_ZN7testing8internal11MatcherBaseISt17basic_string_viewIcSt11char_traitsIcEEE7DestroyEv>
    c555:	4c 89 ff             	mov    %r15,%rdi
    c558:	e8 59 2d 00 00       	call   f2b6 <_ZNSt7__cxx1112basic_stringIcSt11char_traitsIcESaIcEE10_M_disposeEv>
    c55d:	4c 89 f7             	mov    %r14,%rdi
    c560:	e8 51 2d 00 00       	call   f2b6 <_ZNSt7__cxx1112basic_stringIcSt11char_traitsIcESaIcEE10_M_disposeEv>
    c565:	49 8d 45 10          	lea    0x10(%r13),%rax
    c569:	48 89 ef             	mov    %rbp,%rdi
    c56c:	48 89 45 00          	mov    %rax,0x0(%rbp)
    c570:	e8 eb 3e 03 00       	call   40460 <_ZN7testing8internal11MatcherBaseISt17basic_string_viewIcSt11char_traitsIcEEE7DestroyEv>
    c575:	4c 89 e7             	mov    %r12,%rdi
    c578:	e8 c3 e0 ff ff       	call   a640 <_Unwind_Resume@plt>
    c57d:	90                   	nop

000000000000c57e <_ZN7testing7MatcherISt17basic_string_viewIcSt11char_traitsIcEEEC2ES4_.cold>:
    c57e:	48 8b 7c 24 08       	mov    0x8(%rsp),%rdi
    c583:	49 8d 45 10          	lea    0x10(%r13),%rax
    c587:	48 89 44 24 10       	mov    %rax,0x10(%rsp)
    c58c:	e8 cf 3e 03 00       	call   40460 <_ZN7testing8internal11MatcherBaseISt17basic_string_viewIcSt11char_traitsIcEEE7DestroyEv>
    c591:	4c 89 ff             	mov    %r15,%rdi
    c594:	e8 1d 2d 00 00       	call   f2b6 <_ZNSt7__cxx1112basic_stringIcSt11char_traitsIcESaIcEE10_M_disposeEv>
    c599:	4c 89 f7             	mov    %r14,%rdi
    c59c:	e8 15 2d 00 00       	call   f2b6 <_ZNSt7__cxx1112basic_stringIcSt11char_traitsIcESaIcEE10_M_disposeEv>
    c5a1:	49 8d 45 10          	lea    0x10(%r13),%rax
    c5a5:	48 89 ef             	mov    %rbp,%rdi
    c5a8:	48 89 45 00          	mov    %rax,0x0(%rbp)
    c5ac:	e8 af 3e 03 00       	call   40460 <_ZN7testing8internal11MatcherBaseISt17basic_string_viewIcSt11char_traitsIcEEE7DestroyEv>
    c5b1:	4c 89 e7             	mov    %r12,%rdi
    c5b4:	e8 87 e0 ff ff       	call   a640 <_Unwind_Resume@plt>
    c5b9:	90                   	nop

000000000000c5ba <_ZN7testing8internal34TypeParameterizedTestSuiteRegistry17RegisterTestSuiteEPKcNS0_12CodeLocationE.cold>:
    c5ba:	4c 89 ef             	mov    %r13,%rdi
    c5bd:	e8 f4 2c 00 00       	call   f2b6 <_ZNSt7__cxx1112basic_stringIcSt11char_traitsIcESaIcEE10_M_disposeEv>
    c5c2:	4c 89 e7             	mov    %r12,%rdi
    c5c5:	e8 ec 2c 00 00       	call   f2b6 <_ZNSt7__cxx1112basic_stringIcSt11char_traitsIcESaIcEE10_M_disposeEv>
    c5ca:	48 8b 7c 24 08       	mov    0x8(%rsp),%rdi
    c5cf:	e8 e2 2c 00 00       	call   f2b6 <_ZNSt7__cxx1112basic_stringIcSt11char_traitsIcESaIcEE10_M_disposeEv>
    c5d4:	48 89 ef             	mov    %rbp,%rdi
    c5d7:	e8 64 e0 ff ff       	call   a640 <_Unwind_Resume@plt>

000000000000c5dc <_ZN7testing8internal13edit_distance21CalculateOptimalEditsERKSt6vectorImSaImEES6_.cold>:
    c5dc:	48 8b 7c 24 20       	mov    0x20(%rsp),%rdi
    c5e1:	e8 5a 18 03 00       	call   3de40 <_ZNSt12_Vector_baseIN7testing8internal13edit_distance8EditTypeESaIS3_EED1Ev>
    c5e6:	4c 8b 64 24 50       	mov    0x50(%rsp),%r12
    c5eb:	4c 8b 6c 24 58       	mov    0x58(%rsp),%r13
    c5f0:	4c 89 e3             	mov    %r12,%rbx
    c5f3:	49 39 dd             	cmp    %rbx,%r13
    c5f6:	74 4b                	je     c643 <_ZN7testing8internal13edit_distance21CalculateOptimalEditsERKSt6vectorImSaImEES6_.cold+0x67>
    c5f8:	48 8b 3b             	mov    (%rbx),%rdi
    c5fb:	48 8b 73 10          	mov    0x10(%rbx),%rsi
    c5ff:	48 29 fe             	sub    %rdi,%rsi
    c602:	48 85 ff             	test   %rdi,%rdi
    c605:	74 05                	je     c60c <_ZN7testing8internal13edit_distance21CalculateOptimalEditsERKSt6vectorImSaImEES6_.cold+0x30>
    c607:	e8 24 db ff ff       	call   a130 <_ZdlPvm@plt>
    c60c:	48 83 c3 18          	add    $0x18,%rbx
    c610:	eb e1                	jmp    c5f3 <_ZN7testing8internal13edit_distance21CalculateOptimalEditsERKSt6vectorImSaImEES6_.cold+0x17>
    c612:	48 8b 7c 24 08       	mov    0x8(%rsp),%rdi
    c617:	4c 89 e3             	mov    %r12,%rbx
    c61a:	e8 21 18 03 00       	call   3de40 <_ZNSt12_Vector_baseIN7testing8internal13edit_distance8EditTypeESaIS3_EED1Ev>
    c61f:	4c 8b 6c 24 78       	mov    0x78(%rsp),%r13
    c624:	49 39 dd             	cmp    %rbx,%r13
    c627:	74 37                	je     c660 <_ZN7testing8internal13edit_distance21CalculateOptimalEditsERKSt6vectorImSaImEES6_.cold+0x84>
    c629:	48 8b 3b             	mov    (%rbx),%rdi
    c62c:	48 8b 73 10          	mov    0x10(%rbx),%rsi
    c630:	48 29 fe             	sub    %rdi,%rsi
    c633:	48 85 ff             	test   %rdi,%rdi
    c636:	74 05                	je     c63d <_ZN7testing8internal13edit_distance21CalculateOptimalEditsERKSt6vectorImSaImEES6_.cold+0x61>
    c638:	e8 f3 da ff ff       	call   a130 <_ZdlPvm@plt>
    c63d:	48 83 c3 18          	add    $0x18,%rbx
    c641:	eb e1                	jmp    c624 <_ZN7testing8internal13edit_distance21CalculateOptimalEditsERKSt6vectorImSaImEES6_.cold+0x48>
    c643:	48 8b 74 24 60       	mov    0x60(%rsp),%rsi
    c648:	4c 29 e6             	sub    %r12,%rsi
    c64b:	4d 85 e4             	test   %r12,%r12
    c64e:	74 08                	je     c658 <_ZN7testing8internal13edit_distance21CalculateOptimalEditsERKSt6vectorImSaImEES6_.cold+0x7c>
    c650:	4c 89 e7             	mov    %r12,%rdi
    c653:	e8 d8 da ff ff       	call   a130 <_ZdlPvm@plt>
    c658:	48 89 ef             	mov    %rbp,%rdi
    c65b:	e8 e0 df ff ff       	call   a640 <_Unwind_Resume@plt>
