	.file	"tag_invoke.cpp"
	.text
.Ltext0:
	.file 0 "/tmp/tmp.vnh9o7HhMq/cmake-build-debug-remote-docker/src_cpp_language/customization_func" "/tmp/tmp.vnh9o7HhMq/src_cpp_language/customization_func/tag_invoke.cpp"
	.section	.text._ZSt23__is_constant_evaluatedv,"axG",@progbits,_ZSt23__is_constant_evaluatedv,comdat
	.weak	_ZSt23__is_constant_evaluatedv
	.type	_ZSt23__is_constant_evaluatedv, @function
_ZSt23__is_constant_evaluatedv:
.LFB1:
	.file 1 "/usr/include/x86_64-linux-gnu/c++/12/bits/c++config.h"
	.loc 1 517 3
	.cfi_startproc
	endbr64
	pushq	%rbp
	.cfi_def_cfa_offset 16
	.cfi_offset 6, -16
	movq	%rsp, %rbp
	.cfi_def_cfa_register 6
	.loc 1 523 44
	movl	$0, %eax
	.loc 1 527 3
	popq	%rbp
	.cfi_def_cfa 7, 8
	ret
	.cfi_endproc
.LFE1:
	.size	_ZSt23__is_constant_evaluatedv, .-_ZSt23__is_constant_evaluatedv
	.section	.text._ZSt21is_constant_evaluatedv,"axG",@progbits,_ZSt21is_constant_evaluatedv,comdat
	.weak	_ZSt21is_constant_evaluatedv
	.type	_ZSt21is_constant_evaluatedv, @function
_ZSt21is_constant_evaluatedv:
.LFB14:
	.file 2 "/usr/include/c++/12/type_traits"
	.loc 2 3520 3
	.cfi_startproc
	endbr64
	pushq	%rbp
	.cfi_def_cfa_offset 16
	.cfi_offset 6, -16
	movq	%rsp, %rbp
	.cfi_def_cfa_register 6
	.loc 2 3524 44
	movl	$0, %eax
	.loc 2 3526 3
	popq	%rbp
	.cfi_def_cfa 7, 8
	ret
	.cfi_endproc
.LFE14:
	.size	_ZSt21is_constant_evaluatedv, .-_ZSt21is_constant_evaluatedv
	.section	.text._ZnwmPv,"axG",@progbits,_ZnwmPv,comdat
	.weak	_ZnwmPv
	.type	_ZnwmPv, @function
_ZnwmPv:
.LFB411:
	.file 3 "/usr/include/c++/12/new"
	.loc 3 175 1
	.cfi_startproc
	endbr64
	pushq	%rbp
	.cfi_def_cfa_offset 16
	.cfi_offset 6, -16
	movq	%rsp, %rbp
	.cfi_def_cfa_register 6
	movq	%rdi, -8(%rbp)
	movq	%rsi, -16(%rbp)
	.loc 3 175 10
	movq	-16(%rbp), %rax
	.loc 3 175 15
	popq	%rbp
	.cfi_def_cfa 7, 8
	ret
	.cfi_endproc
.LFE411:
	.size	_ZnwmPv, .-_ZnwmPv
	.section	.text._ZNSt11char_traitsIcE6assignERcRKc,"axG",@progbits,_ZNSt11char_traitsIcE6assignERcRKc,comdat
	.weak	_ZNSt11char_traitsIcE6assignERcRKc
	.type	_ZNSt11char_traitsIcE6assignERcRKc, @function
_ZNSt11char_traitsIcE6assignERcRKc:
.LFB1329:
	.file 4 "/usr/include/c++/12/bits/char_traits.h"
	.loc 4 347 7
	.cfi_startproc
	endbr64
	pushq	%rbp
	.cfi_def_cfa_offset 16
	.cfi_offset 6, -16
	movq	%rsp, %rbp
	.cfi_def_cfa_register 6
	subq	$16, %rsp
	movq	%rdi, -8(%rbp)
	movq	%rsi, -16(%rbp)
	.loc 4 350 34
	call	_ZSt23__is_constant_evaluatedv@PLT
	.loc 4 350 2
	testb	%al, %al
	je	.L8
	.loc 4 351 21
	movq	-16(%rbp), %rdx
	movq	-8(%rbp), %rax
	movq	%rdx, %rsi
	movq	%rax, %rdi
	call	_ZSt12construct_atIcJRKcEEDTgsnwcvPvLi0E_T_pispcl7declvalIT0_EEEEPS3_DpOS4_@PLT
	.loc 4 355 7
	jmp	.L10
.L8:
	.loc 4 354 9
	movq	-16(%rbp), %rax
	movzbl	(%rax), %edx
	.loc 4 354 7
	movq	-8(%rbp), %rax
	movb	%dl, (%rax)
.L10:
	.loc 4 355 7
	nop
	leave
	.cfi_def_cfa 7, 8
	ret
	.cfi_endproc
.LFE1329:
	.size	_ZNSt11char_traitsIcE6assignERcRKc, .-_ZNSt11char_traitsIcE6assignERcRKc
	.section	.text._ZNSt11char_traitsIcE6lengthEPKc,"axG",@progbits,_ZNSt11char_traitsIcE6lengthEPKc,comdat
	.weak	_ZNSt11char_traitsIcE6lengthEPKc
	.type	_ZNSt11char_traitsIcE6lengthEPKc, @function
_ZNSt11char_traitsIcE6lengthEPKc:
.LFB1333:
	.loc 4 389 7
	.cfi_startproc
	endbr64
	pushq	%rbp
	.cfi_def_cfa_offset 16
	.cfi_offset 6, -16
	movq	%rsp, %rbp
	.cfi_def_cfa_register 6
	subq	$16, %rsp
	movq	%rdi, -8(%rbp)
	.loc 4 392 34
	call	_ZSt23__is_constant_evaluatedv@PLT
	.loc 4 392 2
	testb	%al, %al
	je	.L12
	.loc 4 393 52
	movq	-8(%rbp), %rax
	movq	%rax, %rdi
	call	_ZN9__gnu_cxx11char_traitsIcE6lengthEPKc@PLT
	.loc 4 393 56
	jmp	.L13
.L12:
	.loc 4 395 25
	movq	-8(%rbp), %rax
	movq	%rax, %rdi
	call	strlen@PLT
	.loc 4 395 29
	nop
.L13:
	.loc 4 396 7
	leave
	.cfi_def_cfa 7, 8
	ret
	.cfi_endproc
.LFE1333:
	.size	_ZNSt11char_traitsIcE6lengthEPKc, .-_ZNSt11char_traitsIcE6lengthEPKc
	.section	.text._ZNSt11char_traitsIcE4copyEPcPKcm,"axG",@progbits,_ZNSt11char_traitsIcE4copyEPcPKcm,comdat
	.weak	_ZNSt11char_traitsIcE4copyEPcPKcm
	.type	_ZNSt11char_traitsIcE4copyEPcPKcm, @function
_ZNSt11char_traitsIcE4copyEPcPKcm:
.LFB1336:
	.loc 4 423 7
	.cfi_startproc
	endbr64
	pushq	%rbp
	.cfi_def_cfa_offset 16
	.cfi_offset 6, -16
	movq	%rsp, %rbp
	.cfi_def_cfa_register 6
	subq	$32, %rsp
	movq	%rdi, -8(%rbp)
	movq	%rsi, -16(%rbp)
	movq	%rdx, -24(%rbp)
	.loc 4 425 2
	cmpq	$0, -24(%rbp)
	jne	.L15
	.loc 4 426 11
	movq	-8(%rbp), %rax
	jmp	.L16
.L15:
	.loc 4 428 34
	call	_ZSt23__is_constant_evaluatedv@PLT
	.loc 4 428 2
	testb	%al, %al
	je	.L17
	.loc 4 429 50
	movq	-24(%rbp), %rdx
	movq	-16(%rbp), %rcx
	movq	-8(%rbp), %rax
	movq	%rcx, %rsi
	movq	%rax, %rdi
	call	_ZN9__gnu_cxx11char_traitsIcE4copyEPcPKcm@PLT
	.loc 4 429 66
	jmp	.L16
.L17:
	.loc 4 431 49
	movq	-8(%rbp), %rdx
	movq	-16(%rbp), %rax
	movq	%rdx, %rcx
	movq	%rax, %rsi
	movq	-24(%rbp), %rax
	movq	%rax, %rdx
	movq	%rcx, %rdi
	call	memcpy@PLT
	.loc 4 431 66
	nop
.L16:
	.loc 4 432 7
	leave
	.cfi_def_cfa 7, 8
	ret
	.cfi_endproc
.LFE1336:
	.size	_ZNSt11char_traitsIcE4copyEPcPKcm, .-_ZNSt11char_traitsIcE4copyEPcPKcm
	.section	.rodata
	.align 4
	.type	_ZN9__gnu_cxxL21__default_lock_policyE, @object
	.size	_ZN9__gnu_cxxL21__default_lock_policyE, 4
_ZN9__gnu_cxxL21__default_lock_policyE:
	.long	2
	.align 8
	.type	_ZNSt8__detailL25__platform_wait_alignmentE, @object
	.size	_ZNSt8__detailL25__platform_wait_alignmentE, 8
_ZNSt8__detailL25__platform_wait_alignmentE:
	.quad	4
	.align 4
	.type	_ZNSt8__detailL21__atomic_spin_count_1E, @object
	.size	_ZNSt8__detailL21__atomic_spin_count_1E, 4
_ZNSt8__detailL21__atomic_spin_count_1E:
	.long	12
	.align 4
	.type	_ZNSt8__detailL21__atomic_spin_count_2E, @object
	.size	_ZNSt8__detailL21__atomic_spin_count_2E, 4
_ZNSt8__detailL21__atomic_spin_count_2E:
	.long	4
	.type	_ZN6__pstl9execution2v1L3seqE, @object
	.size	_ZN6__pstl9execution2v1L3seqE, 1
_ZN6__pstl9execution2v1L3seqE:
	.zero	1
	.type	_ZN6__pstl9execution2v1L3parE, @object
	.size	_ZN6__pstl9execution2v1L3parE, 1
_ZN6__pstl9execution2v1L3parE:
	.zero	1
	.type	_ZN6__pstl9execution2v1L9par_unseqE, @object
	.size	_ZN6__pstl9execution2v1L9par_unseqE, 1
_ZN6__pstl9execution2v1L9par_unseqE:
	.zero	1
	.type	_ZN6__pstl9execution2v1L5unseqE, @object
	.size	_ZN6__pstl9execution2v1L5unseqE, 1
_ZN6__pstl9execution2v1L5unseqE:
	.zero	1
	.local	_ZStL8__ioinit
	.comm	_ZStL8__ioinit,1,1
	.section	.text._ZN7testing8internal8GTestLog9GetStreamEv,"axG",@progbits,_ZN7testing8internal8GTestLog9GetStreamEv,comdat
	.align 2
	.weak	_ZN7testing8internal8GTestLog9GetStreamEv
	.type	_ZN7testing8internal8GTestLog9GetStreamEv, @function
_ZN7testing8internal8GTestLog9GetStreamEv:
.LFB3962:
	.file 5 "/usr/include/gtest/internal/gtest-port.h"
	.loc 5 977 19
	.cfi_startproc
	endbr64
	pushq	%rbp
	.cfi_def_cfa_offset 16
	.cfi_offset 6, -16
	movq	%rsp, %rbp
	.cfi_def_cfa_register 6
	movq	%rdi, -8(%rbp)
	.loc 5 977 47
	movq	_ZSt4cerr@GOTPCREL(%rip), %rax
	.loc 5 977 53
	popq	%rbp
	.cfi_def_cfa 7, 8
	ret
	.cfi_endproc
.LFE3962:
	.size	_ZN7testing8internal8GTestLog9GetStreamEv, .-_ZN7testing8internal8GTestLog9GetStreamEv
	.section	.text._ZNKSt7__cxx1112basic_stringIcSt11char_traitsIcESaIcEE7_M_dataEv,"axG",@progbits,_ZNKSt7__cxx1112basic_stringIcSt11char_traitsIcESaIcEE7_M_dataEv,comdat
	.align 2
	.weak	_ZNKSt7__cxx1112basic_stringIcSt11char_traitsIcESaIcEE7_M_dataEv
	.type	_ZNKSt7__cxx1112basic_stringIcSt11char_traitsIcESaIcEE7_M_dataEv, @function
_ZNKSt7__cxx1112basic_stringIcSt11char_traitsIcESaIcEE7_M_dataEv:
.LFB4039:
	.file 6 "/usr/include/c++/12/bits/basic_string.h"
	.loc 6 234 7
	.cfi_startproc
	endbr64
	pushq	%rbp
	.cfi_def_cfa_offset 16
	.cfi_offset 6, -16
	movq	%rsp, %rbp
	.cfi_def_cfa_register 6
	movq	%rdi, -8(%rbp)
	.loc 6 235 28
	movq	-8(%rbp), %rax
	movq	(%rax), %rax
	.loc 6 235 34
	popq	%rbp
	.cfi_def_cfa 7, 8
	ret
	.cfi_endproc
.LFE4039:
	.size	_ZNKSt7__cxx1112basic_stringIcSt11char_traitsIcESaIcEE7_M_dataEv, .-_ZNKSt7__cxx1112basic_stringIcSt11char_traitsIcESaIcEE7_M_dataEv
	.section	.rodata
	.align 8
	.type	_ZN7testing8internalL14kMaxBiggestIntE, @object
	.size	_ZN7testing8internalL14kMaxBiggestIntE, 8
_ZN7testing8internalL14kMaxBiggestIntE:
	.quad	9223372036854775807
	.section	.text._ZN7testing8internal15TestFactoryBaseD2Ev,"axG",@progbits,_ZN7testing8internal15TestFactoryBaseD5Ev,comdat
	.align 2
	.weak	_ZN7testing8internal15TestFactoryBaseD2Ev
	.type	_ZN7testing8internal15TestFactoryBaseD2Ev, @function
_ZN7testing8internal15TestFactoryBaseD2Ev:
.LFB5104:
	.file 7 "/usr/include/gtest/internal/gtest-internal.h"
	.loc 7 454 11
	.cfi_startproc
	endbr64
	pushq	%rbp
	.cfi_def_cfa_offset 16
	.cfi_offset 6, -16
	movq	%rsp, %rbp
	.cfi_def_cfa_register 6
	movq	%rdi, -8(%rbp)
.LBB10:
	.loc 7 454 30
	movq	_ZTVN7testing8internal15TestFactoryBaseE@GOTPCREL(%rip), %rax
	leaq	16(%rax), %rdx
	movq	-8(%rbp), %rax
	movq	%rdx, (%rax)
.LBE10:
	.loc 7 454 31
	nop
	popq	%rbp
	.cfi_def_cfa 7, 8
	ret
	.cfi_endproc
.LFE5104:
	.size	_ZN7testing8internal15TestFactoryBaseD2Ev, .-_ZN7testing8internal15TestFactoryBaseD2Ev
	.weak	_ZN7testing8internal15TestFactoryBaseD1Ev
	.set	_ZN7testing8internal15TestFactoryBaseD1Ev,_ZN7testing8internal15TestFactoryBaseD2Ev
	.section	.text._ZN7testing8internal15TestFactoryBaseD0Ev,"axG",@progbits,_ZN7testing8internal15TestFactoryBaseD5Ev,comdat
	.align 2
	.weak	_ZN7testing8internal15TestFactoryBaseD0Ev
	.type	_ZN7testing8internal15TestFactoryBaseD0Ev, @function
_ZN7testing8internal15TestFactoryBaseD0Ev:
.LFB5106:
	.loc 7 454 11
	.cfi_startproc
	endbr64
	pushq	%rbp
	.cfi_def_cfa_offset 16
	.cfi_offset 6, -16
	movq	%rsp, %rbp
	.cfi_def_cfa_register 6
	subq	$16, %rsp
	movq	%rdi, -8(%rbp)
	.loc 7 454 31
	movq	-8(%rbp), %rax
	movq	%rax, %rdi
	call	_ZN7testing8internal15TestFactoryBaseD1Ev@PLT
	movq	-8(%rbp), %rax
	movl	$8, %esi
	movq	%rax, %rdi
	call	_ZdlPvm@PLT
	leave
	.cfi_def_cfa 7, 8
	ret
	.cfi_endproc
.LFE5106:
	.size	_ZN7testing8internal15TestFactoryBaseD0Ev, .-_ZN7testing8internal15TestFactoryBaseD0Ev
	.section	.text._ZN7testing8internal15TestFactoryBaseC2Ev,"axG",@progbits,_ZN7testing8internal15TestFactoryBaseC5Ev,comdat
	.align 2
	.weak	_ZN7testing8internal15TestFactoryBaseC2Ev
	.type	_ZN7testing8internal15TestFactoryBaseC2Ev, @function
_ZN7testing8internal15TestFactoryBaseC2Ev:
.LFB5108:
	.loc 7 461 3
	.cfi_startproc
	endbr64
	pushq	%rbp
	.cfi_def_cfa_offset 16
	.cfi_offset 6, -16
	movq	%rsp, %rbp
	.cfi_def_cfa_register 6
	movq	%rdi, -8(%rbp)
.LBB11:
	.loc 7 461 21
	movq	_ZTVN7testing8internal15TestFactoryBaseE@GOTPCREL(%rip), %rax
	leaq	16(%rax), %rdx
	movq	-8(%rbp), %rax
	movq	%rdx, (%rax)
.LBE11:
	.loc 7 461 22
	nop
	popq	%rbp
	.cfi_def_cfa 7, 8
	ret
	.cfi_endproc
.LFE5108:
	.size	_ZN7testing8internal15TestFactoryBaseC2Ev, .-_ZN7testing8internal15TestFactoryBaseC2Ev
	.weak	_ZN7testing8internal15TestFactoryBaseC1Ev
	.set	_ZN7testing8internal15TestFactoryBaseC1Ev,_ZN7testing8internal15TestFactoryBaseC2Ev
	.section	.text._ZN7testing8internal12CodeLocationC2ERKNSt7__cxx1112basic_stringIcSt11char_traitsIcESaIcEEEi,"axG",@progbits,_ZN7testing8internal12CodeLocationC5ERKNSt7__cxx1112basic_stringIcSt11char_traitsIcESaIcEEEi,comdat
	.align 2
	.weak	_ZN7testing8internal12CodeLocationC2ERKNSt7__cxx1112basic_stringIcSt11char_traitsIcESaIcEEEi
	.type	_ZN7testing8internal12CodeLocationC2ERKNSt7__cxx1112basic_stringIcSt11char_traitsIcESaIcEEEi, @function
_ZN7testing8internal12CodeLocationC2ERKNSt7__cxx1112basic_stringIcSt11char_traitsIcESaIcEEEi:
.LFB5112:
	.loc 7 493 3
	.cfi_startproc
	endbr64
	pushq	%rbp
	.cfi_def_cfa_offset 16
	.cfi_offset 6, -16
	movq	%rsp, %rbp
	.cfi_def_cfa_register 6
	subq	$32, %rsp
	movq	%rdi, -8(%rbp)
	movq	%rsi, -16(%rbp)
	movl	%edx, -20(%rbp)
.LBB12:
	.loc 7 494 9
	movq	-8(%rbp), %rax
	movq	-16(%rbp), %rdx
	movq	%rdx, %rsi
	movq	%rax, %rdi
	call	_ZNSt7__cxx1112basic_stringIcSt11char_traitsIcESaIcEEC1ERKS4_@PLT
	.loc 7 494 23
	movq	-8(%rbp), %rax
	movl	-20(%rbp), %edx
	movl	%edx, 32(%rax)
.LBE12:
	.loc 7 494 37
	nop
	leave
	.cfi_def_cfa 7, 8
	ret
	.cfi_endproc
.LFE5112:
	.size	_ZN7testing8internal12CodeLocationC2ERKNSt7__cxx1112basic_stringIcSt11char_traitsIcESaIcEEEi, .-_ZN7testing8internal12CodeLocationC2ERKNSt7__cxx1112basic_stringIcSt11char_traitsIcESaIcEEEi
	.weak	_ZN7testing8internal12CodeLocationC1ERKNSt7__cxx1112basic_stringIcSt11char_traitsIcESaIcEEEi
	.set	_ZN7testing8internal12CodeLocationC1ERKNSt7__cxx1112basic_stringIcSt11char_traitsIcESaIcEEEi,_ZN7testing8internal12CodeLocationC2ERKNSt7__cxx1112basic_stringIcSt11char_traitsIcESaIcEEEi
	.section	.text._ZN7testing8internal19GetNotDefaultOrNullEPFvvES2_,"axG",@progbits,_ZN7testing8internal19GetNotDefaultOrNullEPFvvES2_,comdat
	.weak	_ZN7testing8internal19GetNotDefaultOrNullEPFvvES2_
	.type	_ZN7testing8internal19GetNotDefaultOrNullEPFvvES2_, @function
_ZN7testing8internal19GetNotDefaultOrNullEPFvvES2_:
.LFB5114:
	.loc 7 507 67
	.cfi_startproc
	endbr64
	pushq	%rbp
	.cfi_def_cfa_offset 16
	.cfi_offset 6, -16
	movq	%rsp, %rbp
	.cfi_def_cfa_register 6
	movq	%rdi, -8(%rbp)
	movq	%rsi, -16(%rbp)
	.loc 7 508 19
	movq	-8(%rbp), %rax
	cmpq	-16(%rbp), %rax
	je	.L27
	.loc 7 508 19 is_stmt 0 discriminator 1
	movq	-8(%rbp), %rax
	.loc 7 508 31 is_stmt 1 discriminator 1
	jmp	.L29
.L27:
	.loc 7 508 19 discriminator 2
	movl	$0, %eax
.L29:
	.loc 7 509 1 discriminator 5
	popq	%rbp
	.cfi_def_cfa 7, 8
	ret
	.cfi_endproc
.LFE5114:
	.size	_ZN7testing8internal19GetNotDefaultOrNullEPFvvES2_, .-_ZN7testing8internal19GetNotDefaultOrNullEPFvvES2_
	.section	.text._ZN7testing8internal12CodeLocationD2Ev,"axG",@progbits,_ZN7testing8internal12CodeLocationD5Ev,comdat
	.align 2
	.weak	_ZN7testing8internal12CodeLocationD2Ev
	.type	_ZN7testing8internal12CodeLocationD2Ev, @function
_ZN7testing8internal12CodeLocationD2Ev:
.LFB5137:
	.loc 7 492 8
	.cfi_startproc
	endbr64
	pushq	%rbp
	.cfi_def_cfa_offset 16
	.cfi_offset 6, -16
	movq	%rsp, %rbp
	.cfi_def_cfa_register 6
	subq	$16, %rsp
	movq	%rdi, -8(%rbp)
.LBB13:
	.loc 7 492 8
	movq	-8(%rbp), %rax
	movq	%rax, %rdi
	call	_ZNSt7__cxx1112basic_stringIcSt11char_traitsIcESaIcEED1Ev@PLT
.LBE13:
	nop
	leave
	.cfi_def_cfa 7, 8
	ret
	.cfi_endproc
.LFE5137:
	.size	_ZN7testing8internal12CodeLocationD2Ev, .-_ZN7testing8internal12CodeLocationD2Ev
	.weak	_ZN7testing8internal12CodeLocationD1Ev
	.set	_ZN7testing8internal12CodeLocationD1Ev,_ZN7testing8internal12CodeLocationD2Ev
	.section	.rodata
	.align 16
	.type	_ZN7testing8internalL19kDeathTestStyleFlagE, @object
	.size	_ZN7testing8internalL19kDeathTestStyleFlagE, 17
_ZN7testing8internalL19kDeathTestStyleFlagE:
	.string	"death_test_style"
	.align 16
	.type	_ZN7testing8internalL17kDeathTestUseForkE, @object
	.size	_ZN7testing8internalL17kDeathTestUseForkE, 20
_ZN7testing8internalL17kDeathTestUseForkE:
	.string	"death_test_use_fork"
	.align 16
	.type	_ZN7testing8internalL25kInternalRunDeathTestFlagE, @object
	.size	_ZN7testing8internalL25kInternalRunDeathTestFlagE, 24
_ZN7testing8internalL25kInternalRunDeathTestFlagE:
	.string	"internal_run_death_test"
	.align 4
	.type	_ZN7testingL19kMaxStackTraceDepthE, @object
	.size	_ZN7testingL19kMaxStackTraceDepthE, 4
_ZN7testingL19kMaxStackTraceDepthE:
	.long	100
	.section	.text._ZN7testing4Test14SetUpTestSuiteEv,"axG",@progbits,_ZN7testing4Test14SetUpTestSuiteEv,comdat
	.weak	_ZN7testing4Test14SetUpTestSuiteEv
	.type	_ZN7testing4Test14SetUpTestSuiteEv, @function
_ZN7testing4Test14SetUpTestSuiteEv:
.LFB6778:
	.file 8 "/usr/include/gtest/gtest.h"
	.loc 8 427 15
	.cfi_startproc
	endbr64
	pushq	%rbp
	.cfi_def_cfa_offset 16
	.cfi_offset 6, -16
	movq	%rsp, %rbp
	.cfi_def_cfa_register 6
	.loc 8 427 33
	nop
	popq	%rbp
	.cfi_def_cfa 7, 8
	ret
	.cfi_endproc
.LFE6778:
	.size	_ZN7testing4Test14SetUpTestSuiteEv, .-_ZN7testing4Test14SetUpTestSuiteEv
	.section	.text._ZN7testing4Test17TearDownTestSuiteEv,"axG",@progbits,_ZN7testing4Test17TearDownTestSuiteEv,comdat
	.weak	_ZN7testing4Test17TearDownTestSuiteEv
	.type	_ZN7testing4Test17TearDownTestSuiteEv, @function
_ZN7testing4Test17TearDownTestSuiteEv:
.LFB6779:
	.loc 8 435 15
	.cfi_startproc
	endbr64
	pushq	%rbp
	.cfi_def_cfa_offset 16
	.cfi_offset 6, -16
	movq	%rsp, %rbp
	.cfi_def_cfa_register 6
	.loc 8 435 36
	nop
	popq	%rbp
	.cfi_def_cfa 7, 8
	ret
	.cfi_endproc
.LFE6779:
	.size	_ZN7testing4Test17TearDownTestSuiteEv, .-_ZN7testing4Test17TearDownTestSuiteEv
	.section	.text._ZN7testing4Test16TearDownTestCaseEv,"axG",@progbits,_ZN7testing4Test16TearDownTestCaseEv,comdat
	.weak	_ZN7testing4Test16TearDownTestCaseEv
	.type	_ZN7testing4Test16TearDownTestCaseEv, @function
_ZN7testing4Test16TearDownTestCaseEv:
.LFB6780:
	.loc 8 440 15
	.cfi_startproc
	endbr64
	pushq	%rbp
	.cfi_def_cfa_offset 16
	.cfi_offset 6, -16
	movq	%rsp, %rbp
	.cfi_def_cfa_register 6
	.loc 8 440 35
	nop
	popq	%rbp
	.cfi_def_cfa 7, 8
	ret
	.cfi_endproc
.LFE6780:
	.size	_ZN7testing4Test16TearDownTestCaseEv, .-_ZN7testing4Test16TearDownTestCaseEv
	.section	.text._ZN7testing4Test13SetUpTestCaseEv,"axG",@progbits,_ZN7testing4Test13SetUpTestCaseEv,comdat
	.weak	_ZN7testing4Test13SetUpTestCaseEv
	.type	_ZN7testing4Test13SetUpTestCaseEv, @function
_ZN7testing4Test13SetUpTestCaseEv:
.LFB6781:
	.loc 8 441 15
	.cfi_startproc
	endbr64
	pushq	%rbp
	.cfi_def_cfa_offset 16
	.cfi_offset 6, -16
	movq	%rsp, %rbp
	.cfi_def_cfa_register 6
	.loc 8 441 32
	nop
	popq	%rbp
	.cfi_def_cfa 7, 8
	ret
	.cfi_endproc
.LFE6781:
	.size	_ZN7testing4Test13SetUpTestCaseEv, .-_ZN7testing4Test13SetUpTestCaseEv
	.section	.text._ZN7testing4Test5SetupEv,"axG",@progbits,_ZN7testing4Test5SetupEv,comdat
	.align 2
	.weak	_ZN7testing4Test5SetupEv
	.type	_ZN7testing4Test5SetupEv, @function
_ZN7testing4Test5SetupEv:
.LFB6784:
	.loc 8 522 42
	.cfi_startproc
	endbr64
	pushq	%rbp
	.cfi_def_cfa_offset 16
	.cfi_offset 6, -16
	movq	%rsp, %rbp
	.cfi_def_cfa_register 6
	movq	%rdi, -8(%rbp)
	.loc 8 522 59
	movl	$0, %eax
	.loc 8 522 68
	popq	%rbp
	.cfi_def_cfa 7, 8
	ret
	.cfi_endproc
.LFE6784:
	.size	_ZN7testing4Test5SetupEv, .-_ZN7testing4Test5SetupEv
	.section	.rodata
.LC0:
	.string	"%Y-%m-%d %H:%M:%S"
	.section	.text._ZN7LogTime10GetTimeNowB5cxx11Ev,"axG",@progbits,_ZN7LogTime10GetTimeNowB5cxx11Ev,comdat
	.weak	_ZN7LogTime10GetTimeNowB5cxx11Ev
	.type	_ZN7LogTime10GetTimeNowB5cxx11Ev, @function
_ZN7LogTime10GetTimeNowB5cxx11Ev:
.LFB7341:
	.file 9 "/tmp/tmp.vnh9o7HhMq/cpp_bootstrap/common/common_include/log_init.h"
	.loc 9 115 22
	.cfi_startproc
	.cfi_personality 0x9b,DW.ref.__gxx_personality_v0
	.cfi_lsda 0x1b,.LLSDA7341
	endbr64
	pushq	%rbp
	.cfi_def_cfa_offset 16
	.cfi_offset 6, -16
	movq	%rsp, %rbp
	.cfi_def_cfa_register 6
	pushq	%rbx
	subq	$120, %rsp
	.cfi_offset 3, -24
	movq	%rdi, -120(%rbp)
	.loc 9 115 22
	movq	%fs:40, %rax
	movq	%rax, -24(%rbp)
	xorl	%eax, %eax
	.loc 9 116 20
	movl	$0, %edi
	call	time@PLT
	.loc 9 116 22
	movq	%rax, -104(%rbp)
	.loc 9 118 60
	leaq	-104(%rbp), %rax
	movq	%rax, %rdi
	call	localtime@PLT
	movq	%rax, %rdx
	.loc 9 118 13
	leaq	-96(%rbp), %rax
	movq	%rdx, %rcx
	leaq	.LC0(%rip), %rdx
	movl	$64, %esi
	movq	%rax, %rdi
	call	strftime@PLT
	.loc 9 119 12
	leaq	-105(%rbp), %rax
	movq	%rax, %rdi
	call	_ZNSaIcEC1Ev@PLT
	leaq	-105(%rbp), %rdx
	leaq	-96(%rbp), %rcx
	movq	-120(%rbp), %rax
	movq	%rcx, %rsi
	movq	%rax, %rdi
.LEHB0:
	call	_ZNSt7__cxx1112basic_stringIcSt11char_traitsIcESaIcEEC1IS3_EEPKcRKS3_@PLT
.LEHE0:
	leaq	-105(%rbp), %rax
	movq	%rax, %rdi
	call	_ZNSaIcED1Ev@PLT
	.loc 9 120 3
	movq	-24(%rbp), %rax
	subq	%fs:40, %rax
	je	.L40
	jmp	.L42
.L41:
	endbr64
	.loc 9 119 12
	movq	%rax, %rbx
	leaq	-105(%rbp), %rax
	movq	%rax, %rdi
	call	_ZNSaIcED1Ev@PLT
	movq	%rbx, %rax
	movq	%rax, %rdi
.LEHB1:
	call	_Unwind_Resume@PLT
.LEHE1:
.L42:
	.loc 9 120 3
	call	__stack_chk_fail@PLT
.L40:
	movq	-120(%rbp), %rax
	movq	-8(%rbp), %rbx
	leave
	.cfi_def_cfa 7, 8
	ret
	.cfi_endproc
.LFE7341:
	.globl	__gxx_personality_v0
	.section	.gcc_except_table._ZN7LogTime10GetTimeNowB5cxx11Ev,"aG",@progbits,_ZN7LogTime10GetTimeNowB5cxx11Ev,comdat
.LLSDA7341:
	.byte	0xff
	.byte	0xff
	.byte	0x1
	.uleb128 .LLSDACSE7341-.LLSDACSB7341
.LLSDACSB7341:
	.uleb128 .LEHB0-.LFB7341
	.uleb128 .LEHE0-.LEHB0
	.uleb128 .L41-.LFB7341
	.uleb128 0
	.uleb128 .LEHB1-.LFB7341
	.uleb128 .LEHE1-.LEHB1
	.uleb128 0
	.uleb128 0
.LLSDACSE7341:
	.section	.text._ZN7LogTime10GetTimeNowB5cxx11Ev,"axG",@progbits,_ZN7LogTime10GetTimeNowB5cxx11Ev,comdat
	.size	_ZN7LogTime10GetTimeNowB5cxx11Ev, .-_ZN7LogTime10GetTimeNowB5cxx11Ev
	.weak	_ZN10tag_invoke9view_base4ShowE
	.section	.bss._ZN10tag_invoke9view_base4ShowE,"awG",@nobits,_ZN10tag_invoke9view_base4ShowE,comdat
	.type	_ZN10tag_invoke9view_base4ShowE, @gnu_unique_object
	.size	_ZN10tag_invoke9view_base4ShowE, 1
_ZN10tag_invoke9view_base4ShowE:
	.zero	1
	.section	.rodata
.LC1:
	.string	"[DEBUG]"
.LC2:
	.string	"    ["
.LC3:
	.string	"]    "
.LC4:
	.string	"["
.LC5:
	.string	"show image"
.LC6:
	.string	"]   ["
	.align 8
.LC7:
	.string	"/tmp/tmp.vnh9o7HhMq/src_cpp_language/customization_func/tag_invoke.cpp"
.LC8:
	.string	":"
.LC9:
	.string	"    "
	.align 8
.LC10:
	.string	"void tag_invoke::customization::tag_invoke(tag_invoke::view_base::tag_t<tag_invoke::view_base::Show>, ImgView&)"
.LC11:
	.string	"]"
	.section	.text._ZN10tag_invoke13customization10tag_invokeENS_9view_base6detail6Show_tERNS0_7ImgViewE,"axG",@progbits,_ZN10tag_invoke13customization10tag_invokeENS_9view_base6detail6Show_tERNS0_7ImgViewE,comdat
	.weak	_ZN10tag_invoke13customization10tag_invokeENS_9view_base6detail6Show_tERNS0_7ImgViewE
	.type	_ZN10tag_invoke13customization10tag_invokeENS_9view_base6detail6Show_tERNS0_7ImgViewE, @function
_ZN10tag_invoke13customization10tag_invokeENS_9view_base6detail6Show_tERNS0_7ImgViewE:
.LFB8088:
	.file 10 "/tmp/tmp.vnh9o7HhMq/src_cpp_language/customization_func/tag_invoke.cpp"
	.loc 10 51 15
	.cfi_startproc
	.cfi_personality 0x9b,DW.ref.__gxx_personality_v0
	.cfi_lsda 0x1b,.LLSDA8088
	endbr64
	pushq	%rbp
	.cfi_def_cfa_offset 16
	.cfi_offset 6, -16
	movq	%rsp, %rbp
	.cfi_def_cfa_register 6
	pushq	%rbx
	subq	$72, %rsp
	.cfi_offset 3, -24
	movq	%rdi, -72(%rbp)
	.loc 10 51 15
	movq	%fs:40, %rax
	movq	%rax, -24(%rbp)
	xorl	%eax, %eax
	.loc 10 53 5
	leaq	.LC1(%rip), %rax
	movq	%rax, %rsi
	movq	_ZSt4cout@GOTPCREL(%rip), %rax
	movq	%rax, %rdi
	call	_ZStlsISt11char_traitsIcEERSt13basic_ostreamIcT_ES5_PKc@PLT
	movq	%rax, %rdx
	leaq	.LC2(%rip), %rax
	movq	%rax, %rsi
	movq	%rdx, %rdi
	call	_ZStlsISt11char_traitsIcEERSt13basic_ostreamIcT_ES5_PKc@PLT
	movq	%rax, %rbx
	leaq	-64(%rbp), %rax
	movq	%rax, %rdi
	call	_ZN7LogTime10GetTimeNowB5cxx11Ev@PLT
	leaq	-64(%rbp), %rax
	movq	%rax, %rsi
	movq	%rbx, %rdi
	call	_ZStlsIcSt11char_traitsIcESaIcEERSt13basic_ostreamIT_T0_ES7_RKNSt7__cxx1112basic_stringIS4_S5_T1_EE@PLT
	movq	%rax, %rdx
	leaq	.LC3(%rip), %rax
	movq	%rax, %rsi
	movq	%rdx, %rdi
	call	_ZStlsISt11char_traitsIcEERSt13basic_ostreamIcT_ES5_PKc@PLT
	movq	%rax, %rdx
	leaq	.LC4(%rip), %rax
	movq	%rax, %rsi
	movq	%rdx, %rdi
	call	_ZStlsISt11char_traitsIcEERSt13basic_ostreamIcT_ES5_PKc@PLT
	movq	%rax, %rdx
	leaq	.LC5(%rip), %rax
	movq	%rax, %rsi
	movq	%rdx, %rdi
	call	_ZStlsISt11char_traitsIcEERSt13basic_ostreamIcT_ES5_PKc@PLT
	movq	%rax, %rdx
	leaq	.LC6(%rip), %rax
	movq	%rax, %rsi
	movq	%rdx, %rdi
	call	_ZStlsISt11char_traitsIcEERSt13basic_ostreamIcT_ES5_PKc@PLT
	movq	%rax, %rdx
	leaq	.LC7(%rip), %rax
	movq	%rax, %rsi
	movq	%rdx, %rdi
	call	_ZStlsISt11char_traitsIcEERSt13basic_ostreamIcT_ES5_PKc@PLT
	movq	%rax, %rdx
	leaq	.LC8(%rip), %rax
	movq	%rax, %rsi
	movq	%rdx, %rdi
	call	_ZStlsISt11char_traitsIcEERSt13basic_ostreamIcT_ES5_PKc@PLT
	movl	$53, %esi
	movq	%rax, %rdi
	call	_ZNSolsEi@PLT
	movq	%rax, %rdx
	leaq	.LC9(%rip), %rax
	movq	%rax, %rsi
	movq	%rdx, %rdi
	call	_ZStlsISt11char_traitsIcEERSt13basic_ostreamIcT_ES5_PKc@PLT
	movq	%rax, %rdx
	leaq	.LC10(%rip), %rax
	movq	%rax, %rsi
	movq	%rdx, %rdi
	call	_ZStlsISt11char_traitsIcEERSt13basic_ostreamIcT_ES5_PKc@PLT
	movq	%rax, %rdx
	leaq	.LC11(%rip), %rax
	movq	%rax, %rsi
	movq	%rdx, %rdi
	call	_ZStlsISt11char_traitsIcEERSt13basic_ostreamIcT_ES5_PKc@PLT
	movq	_ZSt4endlIcSt11char_traitsIcEERSt13basic_ostreamIT_T0_ES6_@GOTPCREL(%rip), %rdx
	movq	%rdx, %rsi
	movq	%rax, %rdi
	call	_ZNSolsEPFRSoS_E@PLT
	leaq	-64(%rbp), %rax
	movq	%rax, %rdi
	call	_ZNSt7__cxx1112basic_stringIcSt11char_traitsIcESaIcEED1Ev@PLT
	.loc 10 54 3
	nop
	movq	-24(%rbp), %rax
	subq	%fs:40, %rax
	je	.L44
	call	__stack_chk_fail@PLT
.L44:
	movq	-8(%rbp), %rbx
	leave
	.cfi_def_cfa 7, 8
	ret
	.cfi_endproc
.LFE8088:
	.section	.gcc_except_table._ZN10tag_invoke13customization10tag_invokeENS_9view_base6detail6Show_tERNS0_7ImgViewE,"aG",@progbits,_ZN10tag_invoke13customization10tag_invokeENS_9view_base6detail6Show_tERNS0_7ImgViewE,comdat
.LLSDA8088:
	.byte	0xff
	.byte	0xff
	.byte	0x1
	.uleb128 .LLSDACSE8088-.LLSDACSB8088
.LLSDACSB8088:
.LLSDACSE8088:
	.section	.text._ZN10tag_invoke13customization10tag_invokeENS_9view_base6detail6Show_tERNS0_7ImgViewE,"axG",@progbits,_ZN10tag_invoke13customization10tag_invokeENS_9view_base6detail6Show_tERNS0_7ImgViewE,comdat
	.size	_ZN10tag_invoke13customization10tag_invokeENS_9view_base6detail6Show_tERNS0_7ImgViewE, .-_ZN10tag_invoke13customization10tag_invokeENS_9view_base6detail6Show_tERNS0_7ImgViewE
	.section	.text._ZN7testing8internal15TestFactoryImplIN10tag_invoke17tag_invoke_1_TestEEC2Ev,"axG",@progbits,_ZN7testing8internal15TestFactoryImplIN10tag_invoke17tag_invoke_1_TestEEC5Ev,comdat
	.align 2
	.weak	_ZN7testing8internal15TestFactoryImplIN10tag_invoke17tag_invoke_1_TestEEC2Ev
	.type	_ZN7testing8internal15TestFactoryImplIN10tag_invoke17tag_invoke_1_TestEEC2Ev, @function
_ZN7testing8internal15TestFactoryImplIN10tag_invoke17tag_invoke_1_TestEEC2Ev:
.LFB8090:
	.loc 7 470 7
	.cfi_startproc
	endbr64
	pushq	%rbp
	.cfi_def_cfa_offset 16
	.cfi_offset 6, -16
	movq	%rsp, %rbp
	.cfi_def_cfa_register 6
	subq	$16, %rsp
	movq	%rdi, -8(%rbp)
.LBB14:
	.loc 7 470 7
	movq	-8(%rbp), %rax
	movq	%rax, %rdi
	call	_ZN7testing8internal15TestFactoryBaseC2Ev@PLT
	movq	_ZTVN7testing8internal15TestFactoryImplIN10tag_invoke17tag_invoke_1_TestEEE@GOTPCREL(%rip), %rax
	leaq	16(%rax), %rdx
	movq	-8(%rbp), %rax
	movq	%rdx, (%rax)
.LBE14:
	nop
	leave
	.cfi_def_cfa 7, 8
	ret
	.cfi_endproc
.LFE8090:
	.size	_ZN7testing8internal15TestFactoryImplIN10tag_invoke17tag_invoke_1_TestEEC2Ev, .-_ZN7testing8internal15TestFactoryImplIN10tag_invoke17tag_invoke_1_TestEEC2Ev
	.weak	_ZN7testing8internal15TestFactoryImplIN10tag_invoke17tag_invoke_1_TestEEC1Ev
	.set	_ZN7testing8internal15TestFactoryImplIN10tag_invoke17tag_invoke_1_TestEEC1Ev,_ZN7testing8internal15TestFactoryImplIN10tag_invoke17tag_invoke_1_TestEEC2Ev
	.globl	_ZN10tag_invoke17tag_invoke_1_Test10test_info_E
	.bss
	.align 8
	.type	_ZN10tag_invoke17tag_invoke_1_Test10test_info_E, @object
	.size	_ZN10tag_invoke17tag_invoke_1_Test10test_info_E, 8
_ZN10tag_invoke17tag_invoke_1_Test10test_info_E:
	.zero	8
	.text
	.align 2
	.globl	_ZN10tag_invoke17tag_invoke_1_Test8TestBodyEv
	.type	_ZN10tag_invoke17tag_invoke_1_Test8TestBodyEv, @function
_ZN10tag_invoke17tag_invoke_1_Test8TestBodyEv:
.LFB8092:
	.loc 10 59 21
	.cfi_startproc
	endbr64
	pushq	%rbp
	.cfi_def_cfa_offset 16
	.cfi_offset 6, -16
	movq	%rsp, %rbp
	.cfi_def_cfa_register 6
	subq	$32, %rsp
	movq	%rdi, -24(%rbp)
	.loc 10 59 21
	movq	%fs:40, %rax
	movq	%rax, -8(%rbp)
	xorl	%eax, %eax
	.loc 10 66 18
	leaq	-10(%rbp), %rax
	movq	%rax, %rsi
	movq	_ZN10tag_invoke9view_base4ShowE@GOTPCREL(%rip), %rax
	movq	%rax, %rdi
	call	_ZN10tag_invoke9view_base6detail6Show_tclINS_13customization7ImgViewEEEvRT_@PLT
	.loc 10 67 18
	leaq	-9(%rbp), %rax
	movq	%rax, %rsi
	movq	_ZN10tag_invoke9view_base4ShowE@GOTPCREL(%rip), %rax
	movq	%rax, %rdi
	call	_ZN10tag_invoke9view_base6detail6Show_tclINS_13customization8VoidViewEEEvRT_@PLT
	.loc 10 69 7
	leaq	-10(%rbp), %rax
	movq	%rax, %rsi
	movq	_ZN10tag_invoke9view_base4ShowE@GOTPCREL(%rip), %rax
	movq	%rax, %rdi
	call	_ZN10tag_invoke9view_base6detail6Show_tclINS_13customization7ImgViewEEEvRT_@PLT
	.loc 10 70 7
	leaq	-9(%rbp), %rax
	movq	%rax, %rsi
	movq	_ZN10tag_invoke9view_base4ShowE@GOTPCREL(%rip), %rax
	movq	%rax, %rdi
	call	_ZN10tag_invoke9view_base6detail6Show_tclINS_13customization8VoidViewEEEvRT_@PLT
	.loc 10 71 1
	nop
	movq	-8(%rbp), %rax
	subq	%fs:40, %rax
	je	.L47
	call	__stack_chk_fail@PLT
.L47:
	leave
	.cfi_def_cfa 7, 8
	ret
	.cfi_endproc
.LFE8092:
	.size	_ZN10tag_invoke17tag_invoke_1_Test8TestBodyEv, .-_ZN10tag_invoke17tag_invoke_1_Test8TestBodyEv
	.section	.text._ZSt12construct_atIcJRKcEEDTgsnwcvPvLi0E_T_pispcl7declvalIT0_EEEEPS3_DpOS4_,"axG",@progbits,_ZSt12construct_atIcJRKcEEDTgsnwcvPvLi0E_T_pispcl7declvalIT0_EEEEPS3_DpOS4_,comdat
	.weak	_ZSt12construct_atIcJRKcEEDTgsnwcvPvLi0E_T_pispcl7declvalIT0_EEEEPS3_DpOS4_
	.type	_ZSt12construct_atIcJRKcEEDTgsnwcvPvLi0E_T_pispcl7declvalIT0_EEEEPS3_DpOS4_, @function
_ZSt12construct_atIcJRKcEEDTgsnwcvPvLi0E_T_pispcl7declvalIT0_EEEEPS3_DpOS4_:
.LFB8095:
	.file 11 "/usr/include/c++/12/bits/stl_construct.h"
	.loc 11 94 5
	.cfi_startproc
	endbr64
	pushq	%rbp
	.cfi_def_cfa_offset 16
	.cfi_offset 6, -16
	movq	%rsp, %rbp
	.cfi_def_cfa_register 6
	pushq	%rbx
	subq	$24, %rsp
	.cfi_offset 3, -24
	movq	%rdi, -24(%rbp)
	movq	%rsi, -32(%rbp)
	.loc 11 97 20
	movq	-24(%rbp), %rax
	.loc 11 97 14
	movq	%rax, %rsi
	movl	$1, %edi
	call	_ZnwmPv@PLT
	movq	%rax, %rbx
	.loc 11 97 62
	movq	-32(%rbp), %rax
	movq	%rax, %rdi
	call	_ZSt7forwardIRKcEOT_RNSt16remove_referenceIS2_E4typeE@PLT
	.loc 11 97 14
	movzbl	(%rax), %eax
	movb	%al, (%rbx)
	.loc 11 97 73
	movq	%rbx, %rax
	.loc 11 97 76
	movq	-8(%rbp), %rbx
	leave
	.cfi_def_cfa 7, 8
	ret
	.cfi_endproc
.LFE8095:
	.size	_ZSt12construct_atIcJRKcEEDTgsnwcvPvLi0E_T_pispcl7declvalIT0_EEEEPS3_DpOS4_, .-_ZSt12construct_atIcJRKcEEDTgsnwcvPvLi0E_T_pispcl7declvalIT0_EEEEPS3_DpOS4_
	.section	.text._ZN9__gnu_cxx11char_traitsIcE6lengthEPKc,"axG",@progbits,_ZN9__gnu_cxx11char_traitsIcE6lengthEPKc,comdat
	.align 2
	.weak	_ZN9__gnu_cxx11char_traitsIcE6lengthEPKc
	.type	_ZN9__gnu_cxx11char_traitsIcE6lengthEPKc, @function
_ZN9__gnu_cxx11char_traitsIcE6lengthEPKc:
.LFB8096:
	.loc 4 182 5
	.cfi_startproc
	endbr64
	pushq	%rbp
	.cfi_def_cfa_offset 16
	.cfi_offset 6, -16
	movq	%rsp, %rbp
	.cfi_def_cfa_register 6
	subq	$48, %rsp
	movq	%rdi, -40(%rbp)
	.loc 4 182 5
	movq	%fs:40, %rax
	movq	%rax, -8(%rbp)
	xorl	%eax, %eax
	.loc 4 185 19
	movq	$0, -16(%rbp)
	.loc 4 186 7
	jmp	.L51
.L52:
	.loc 4 187 9
	addq	$1, -16(%rbp)
.L51:
	.loc 4 186 17
	movb	$0, -17(%rbp)
	.loc 4 186 21
	movq	-40(%rbp), %rdx
	movq	-16(%rbp), %rax
	addq	%rax, %rdx
	.loc 4 186 17
	leaq	-17(%rbp), %rax
	movq	%rax, %rsi
	movq	%rdx, %rdi
	call	_ZN9__gnu_cxx11char_traitsIcE2eqERKcS3_@PLT
	xorl	$1, %eax
	testb	%al, %al
	jne	.L52
	.loc 4 188 14
	movq	-16(%rbp), %rax
	.loc 4 189 5
	movq	-8(%rbp), %rdx
	subq	%fs:40, %rdx
	je	.L54
	call	__stack_chk_fail@PLT
.L54:
	leave
	.cfi_def_cfa 7, 8
	ret
	.cfi_endproc
.LFE8096:
	.size	_ZN9__gnu_cxx11char_traitsIcE6lengthEPKc, .-_ZN9__gnu_cxx11char_traitsIcE6lengthEPKc
	.section	.text._ZN9__gnu_cxx11char_traitsIcE4copyEPcPKcm,"axG",@progbits,_ZN9__gnu_cxx11char_traitsIcE4copyEPcPKcm,comdat
	.align 2
	.weak	_ZN9__gnu_cxx11char_traitsIcE4copyEPcPKcm
	.type	_ZN9__gnu_cxx11char_traitsIcE4copyEPcPKcm, @function
_ZN9__gnu_cxx11char_traitsIcE4copyEPcPKcm:
.LFB8099:
	.loc 4 255 5
	.cfi_startproc
	endbr64
	pushq	%rbp
	.cfi_def_cfa_offset 16
	.cfi_offset 6, -16
	movq	%rsp, %rbp
	.cfi_def_cfa_register 6
	subq	$48, %rsp
	movq	%rdi, -24(%rbp)
	movq	%rsi, -32(%rbp)
	movq	%rdx, -40(%rbp)
.LBB15:
	.loc 4 259 39
	call	_ZSt23__is_constant_evaluatedv@PLT
	.loc 4 259 7
	testb	%al, %al
	je	.L56
.LBB16:
.LBB17:
	.loc 4 261 21
	movq	$0, -8(%rbp)
	.loc 4 261 4
	jmp	.L57
.L58:
	.loc 4 262 40 discriminator 3
	movq	-32(%rbp), %rdx
	movq	-8(%rbp), %rax
	addq	%rax, %rdx
	.loc 4 262 23 discriminator 3
	movq	-24(%rbp), %rcx
	movq	-8(%rbp), %rax
	addq	%rcx, %rax
	movq	%rdx, %rsi
	movq	%rax, %rdi
	call	_ZSt12construct_atIcJRKcEEDTgsnwcvPvLi0E_T_pispcl7declvalIT0_EEEEPS3_DpOS4_@PLT
	.loc 4 261 4 discriminator 3
	addq	$1, -8(%rbp)
.L57:
	.loc 4 261 34 discriminator 1
	movq	-8(%rbp), %rax
	cmpq	-40(%rbp), %rax
	jb	.L58
.LBE17:
	.loc 4 263 11
	movq	-24(%rbp), %rax
	jmp	.L59
.L56:
.LBE16:
.LBE15:
	.loc 4 267 23
	movq	-24(%rbp), %rdx
	movq	-32(%rbp), %rax
	movq	%rdx, %rcx
	movq	%rax, %rsi
	movq	-40(%rbp), %rax
	movq	%rax, %rdx
	movq	%rcx, %rdi
	call	memcpy@PLT
	.loc 4 268 14
	movq	-24(%rbp), %rax
.L59:
	.loc 4 269 5
	leave
	.cfi_def_cfa 7, 8
	ret
	.cfi_endproc
.LFE8099:
	.size	_ZN9__gnu_cxx11char_traitsIcE4copyEPcPKcm, .-_ZN9__gnu_cxx11char_traitsIcE4copyEPcPKcm
	.section	.text._ZNSt7__cxx1112basic_stringIcSt11char_traitsIcESaIcEE12_Alloc_hiderD2Ev,"axG",@progbits,_ZNSt7__cxx1112basic_stringIcSt11char_traitsIcESaIcEE12_Alloc_hiderD5Ev,comdat
	.align 2
	.weak	_ZNSt7__cxx1112basic_stringIcSt11char_traitsIcESaIcEE12_Alloc_hiderD2Ev
	.type	_ZNSt7__cxx1112basic_stringIcSt11char_traitsIcESaIcEE12_Alloc_hiderD2Ev, @function
_ZNSt7__cxx1112basic_stringIcSt11char_traitsIcESaIcEE12_Alloc_hiderD2Ev:
.LFB8234:
	.loc 6 193 14
	.cfi_startproc
	endbr64
	pushq	%rbp
	.cfi_def_cfa_offset 16
	.cfi_offset 6, -16
	movq	%rsp, %rbp
	.cfi_def_cfa_register 6
	subq	$16, %rsp
	movq	%rdi, -8(%rbp)
.LBB18:
	.loc 6 193 14
	movq	-8(%rbp), %rax
	movq	%rax, %rdi
	call	_ZNSaIcED2Ev@PLT
.LBE18:
	nop
	leave
	.cfi_def_cfa 7, 8
	ret
	.cfi_endproc
.LFE8234:
	.size	_ZNSt7__cxx1112basic_stringIcSt11char_traitsIcESaIcEE12_Alloc_hiderD2Ev, .-_ZNSt7__cxx1112basic_stringIcSt11char_traitsIcESaIcEE12_Alloc_hiderD2Ev
	.weak	_ZNSt7__cxx1112basic_stringIcSt11char_traitsIcESaIcEE12_Alloc_hiderD1Ev
	.set	_ZNSt7__cxx1112basic_stringIcSt11char_traitsIcESaIcEE12_Alloc_hiderD1Ev,_ZNSt7__cxx1112basic_stringIcSt11char_traitsIcESaIcEE12_Alloc_hiderD2Ev
	.section	.text._ZNSt7__cxx1112basic_stringIcSt11char_traitsIcESaIcEED2Ev,"axG",@progbits,_ZNSt7__cxx1112basic_stringIcSt11char_traitsIcESaIcEED5Ev,comdat
	.align 2
	.weak	_ZNSt7__cxx1112basic_stringIcSt11char_traitsIcESaIcEED2Ev
	.type	_ZNSt7__cxx1112basic_stringIcSt11char_traitsIcESaIcEED2Ev, @function
_ZNSt7__cxx1112basic_stringIcSt11char_traitsIcESaIcEED2Ev:
.LFB8239:
	.loc 6 794 7
	.cfi_startproc
	.cfi_personality 0x9b,DW.ref.__gxx_personality_v0
	.cfi_lsda 0x1b,.LLSDA8239
	endbr64
	pushq	%rbp
	.cfi_def_cfa_offset 16
	.cfi_offset 6, -16
	movq	%rsp, %rbp
	.cfi_def_cfa_register 6
	subq	$16, %rsp
	movq	%rdi, -8(%rbp)
.LBB19:
	.loc 6 795 19
	movq	-8(%rbp), %rax
	movq	%rax, %rdi
	call	_ZNSt7__cxx1112basic_stringIcSt11char_traitsIcESaIcEE10_M_disposeEv@PLT
	.loc 6 795 23
	movq	-8(%rbp), %rax
	movq	%rax, %rdi
	call	_ZNSt7__cxx1112basic_stringIcSt11char_traitsIcESaIcEE12_Alloc_hiderD1Ev@PLT
.LBE19:
	nop
	leave
	.cfi_def_cfa 7, 8
	ret
	.cfi_endproc
.LFE8239:
	.section	.gcc_except_table._ZNSt7__cxx1112basic_stringIcSt11char_traitsIcESaIcEED2Ev,"aG",@progbits,_ZNSt7__cxx1112basic_stringIcSt11char_traitsIcESaIcEED5Ev,comdat
.LLSDA8239:
	.byte	0xff
	.byte	0xff
	.byte	0x1
	.uleb128 .LLSDACSE8239-.LLSDACSB8239
.LLSDACSB8239:
.LLSDACSE8239:
	.section	.text._ZNSt7__cxx1112basic_stringIcSt11char_traitsIcESaIcEED2Ev,"axG",@progbits,_ZNSt7__cxx1112basic_stringIcSt11char_traitsIcESaIcEED5Ev,comdat
	.size	_ZNSt7__cxx1112basic_stringIcSt11char_traitsIcESaIcEED2Ev, .-_ZNSt7__cxx1112basic_stringIcSt11char_traitsIcESaIcEED2Ev
	.weak	_ZNSt7__cxx1112basic_stringIcSt11char_traitsIcESaIcEED1Ev
	.set	_ZNSt7__cxx1112basic_stringIcSt11char_traitsIcESaIcEED1Ev,_ZNSt7__cxx1112basic_stringIcSt11char_traitsIcESaIcEED2Ev
	.section	.text._ZNKSt7__cxx1112basic_stringIcSt11char_traitsIcESaIcEE6lengthEv,"axG",@progbits,_ZNKSt7__cxx1112basic_stringIcSt11char_traitsIcESaIcEE6lengthEv,comdat
	.align 2
	.weak	_ZNKSt7__cxx1112basic_stringIcSt11char_traitsIcESaIcEE6lengthEv
	.type	_ZNKSt7__cxx1112basic_stringIcSt11char_traitsIcESaIcEE6lengthEv, @function
_ZNKSt7__cxx1112basic_stringIcSt11char_traitsIcESaIcEE6lengthEv:
.LFB8332:
	.loc 6 1070 7
	.cfi_startproc
	endbr64
	pushq	%rbp
	.cfi_def_cfa_offset 16
	.cfi_offset 6, -16
	movq	%rsp, %rbp
	.cfi_def_cfa_register 6
	movq	%rdi, -8(%rbp)
	.loc 6 1071 16
	movq	-8(%rbp), %rax
	movq	8(%rax), %rax
	.loc 6 1071 34
	popq	%rbp
	.cfi_def_cfa 7, 8
	ret
	.cfi_endproc
.LFE8332:
	.size	_ZNKSt7__cxx1112basic_stringIcSt11char_traitsIcESaIcEE6lengthEv, .-_ZNKSt7__cxx1112basic_stringIcSt11char_traitsIcESaIcEE6lengthEv
	.section	.rodata
	.align 8
.LC12:
	.string	"basic_string: construction from null is not valid"
	.section	.text._ZNSt7__cxx1112basic_stringIcSt11char_traitsIcESaIcEEC2IS3_EEPKcRKS3_,"axG",@progbits,_ZNSt7__cxx1112basic_stringIcSt11char_traitsIcESaIcEEC5IS3_EEPKcRKS3_,comdat
	.align 2
	.weak	_ZNSt7__cxx1112basic_stringIcSt11char_traitsIcESaIcEEC2IS3_EEPKcRKS3_
	.type	_ZNSt7__cxx1112basic_stringIcSt11char_traitsIcESaIcEEC2IS3_EEPKcRKS3_, @function
_ZNSt7__cxx1112basic_stringIcSt11char_traitsIcESaIcEEC2IS3_EEPKcRKS3_:
.LFB8474:
	.loc 6 634 7
	.cfi_startproc
	.cfi_personality 0x9b,DW.ref.__gxx_personality_v0
	.cfi_lsda 0x1b,.LLSDA8474
	endbr64
	pushq	%rbp
	.cfi_def_cfa_offset 16
	.cfi_offset 6, -16
	movq	%rsp, %rbp
	.cfi_def_cfa_register 6
	pushq	%rbx
	subq	$56, %rsp
	.cfi_offset 3, -24
	movq	%rdi, -40(%rbp)
	movq	%rsi, -48(%rbp)
	movq	%rdx, -56(%rbp)
.LBB20:
	.loc 6 635 9
	movq	-40(%rbp), %rbx
	movq	-40(%rbp), %rax
	movq	%rax, %rdi
	call	_ZNSt7__cxx1112basic_stringIcSt11char_traitsIcESaIcEE13_M_local_dataEv@PLT
	movq	%rax, %rcx
	movq	-56(%rbp), %rax
	movq	%rax, %rdx
	movq	%rcx, %rsi
	movq	%rbx, %rdi
	call	_ZNSt7__cxx1112basic_stringIcSt11char_traitsIcESaIcEE12_Alloc_hiderC1EPcRKS3_@PLT
.LBB21:
	.loc 6 638 2
	cmpq	$0, -48(%rbp)
	jne	.L65
	.loc 6 639 28
	leaq	.LC12(%rip), %rax
	movq	%rax, %rdi
.LEHB2:
	call	_ZSt19__throw_logic_errorPKc@PLT
.L65:
	.loc 6 641 49
	movq	-48(%rbp), %rax
	movq	%rax, %rdi
	call	_ZNSt11char_traitsIcE6lengthEPKc@PLT
	.loc 6 641 16
	movq	-48(%rbp), %rdx
	addq	%rdx, %rax
	movq	%rax, -24(%rbp)
	.loc 6 642 14
	movq	-24(%rbp), %rdx
	movq	-48(%rbp), %rcx
	movq	-40(%rbp), %rax
	movq	%rcx, %rsi
	movq	%rax, %rdi
	call	_ZNSt7__cxx1112basic_stringIcSt11char_traitsIcESaIcEE12_M_constructIPKcEEvT_S8_St20forward_iterator_tag@PLT
.LEHE2:
.LBE21:
.LBE20:
	.loc 6 643 7
	jmp	.L68
.L67:
	endbr64
.LBB22:
	movq	%rax, %rbx
	movq	-40(%rbp), %rax
	movq	%rax, %rdi
	call	_ZNSt7__cxx1112basic_stringIcSt11char_traitsIcESaIcEE12_Alloc_hiderD1Ev@PLT
	movq	%rbx, %rax
	movq	%rax, %rdi
.LEHB3:
	call	_Unwind_Resume@PLT
.LEHE3:
.L68:
.LBE22:
	movq	-8(%rbp), %rbx
	leave
	.cfi_def_cfa 7, 8
	ret
	.cfi_endproc
.LFE8474:
	.section	.gcc_except_table._ZNSt7__cxx1112basic_stringIcSt11char_traitsIcESaIcEEC2IS3_EEPKcRKS3_,"aG",@progbits,_ZNSt7__cxx1112basic_stringIcSt11char_traitsIcESaIcEEC5IS3_EEPKcRKS3_,comdat
.LLSDA8474:
	.byte	0xff
	.byte	0xff
	.byte	0x1
	.uleb128 .LLSDACSE8474-.LLSDACSB8474
.LLSDACSB8474:
	.uleb128 .LEHB2-.LFB8474
	.uleb128 .LEHE2-.LEHB2
	.uleb128 .L67-.LFB8474
	.uleb128 0
	.uleb128 .LEHB3-.LFB8474
	.uleb128 .LEHE3-.LEHB3
	.uleb128 0
	.uleb128 0
.LLSDACSE8474:
	.section	.text._ZNSt7__cxx1112basic_stringIcSt11char_traitsIcESaIcEEC2IS3_EEPKcRKS3_,"axG",@progbits,_ZNSt7__cxx1112basic_stringIcSt11char_traitsIcESaIcEEC5IS3_EEPKcRKS3_,comdat
	.size	_ZNSt7__cxx1112basic_stringIcSt11char_traitsIcESaIcEEC2IS3_EEPKcRKS3_, .-_ZNSt7__cxx1112basic_stringIcSt11char_traitsIcESaIcEEC2IS3_EEPKcRKS3_
	.weak	_ZNSt7__cxx1112basic_stringIcSt11char_traitsIcESaIcEEC1IS3_EEPKcRKS3_
	.set	_ZNSt7__cxx1112basic_stringIcSt11char_traitsIcESaIcEEC1IS3_EEPKcRKS3_,_ZNSt7__cxx1112basic_stringIcSt11char_traitsIcESaIcEEC2IS3_EEPKcRKS3_
	.section	.text._ZNSt7__cxx1112basic_stringIcSt11char_traitsIcESaIcEEC2ERKS4_,"axG",@progbits,_ZNSt7__cxx1112basic_stringIcSt11char_traitsIcESaIcEEC5ERKS4_,comdat
	.align 2
	.weak	_ZNSt7__cxx1112basic_stringIcSt11char_traitsIcESaIcEEC2ERKS4_
	.type	_ZNSt7__cxx1112basic_stringIcSt11char_traitsIcESaIcEEC2ERKS4_, @function
_ZNSt7__cxx1112basic_stringIcSt11char_traitsIcESaIcEEC2ERKS4_:
.LFB8477:
	.loc 6 540 7
	.cfi_startproc
	.cfi_personality 0x9b,DW.ref.__gxx_personality_v0
	.cfi_lsda 0x1b,.LLSDA8477
	endbr64
	pushq	%rbp
	.cfi_def_cfa_offset 16
	.cfi_offset 6, -16
	movq	%rsp, %rbp
	.cfi_def_cfa_register 6
	pushq	%rbx
	subq	$40, %rsp
	.cfi_offset 3, -24
	movq	%rdi, -40(%rbp)
	movq	%rsi, -48(%rbp)
	.loc 6 540 7
	movq	%fs:40, %rax
	movq	%rax, -24(%rbp)
	xorl	%eax, %eax
.LBB23:
	.loc 6 541 9
	movq	-40(%rbp), %rbx
	.loc 6 542 62
	movq	-48(%rbp), %rax
	movq	%rax, %rdi
	call	_ZNKSt7__cxx1112basic_stringIcSt11char_traitsIcESaIcEE16_M_get_allocatorEv@PLT
	movq	%rax, %rdx
	.loc 6 541 9
	leaq	-25(%rbp), %rax
	movq	%rdx, %rsi
	movq	%rax, %rdi
.LEHB4:
	call	_ZN9__gnu_cxx14__alloc_traitsISaIcEcE17_S_select_on_copyERKS1_@PLT
.LEHE4:
	movq	-40(%rbp), %rax
	movq	%rax, %rdi
	call	_ZNSt7__cxx1112basic_stringIcSt11char_traitsIcESaIcEE13_M_local_dataEv@PLT
	movq	%rax, %rcx
	leaq	-25(%rbp), %rax
	movq	%rax, %rdx
	movq	%rcx, %rsi
	movq	%rbx, %rdi
	call	_ZNSt7__cxx1112basic_stringIcSt11char_traitsIcESaIcEE12_Alloc_hiderC1EPcOS3_@PLT
	leaq	-25(%rbp), %rax
	movq	%rax, %rdi
	call	_ZNSaIcED1Ev@PLT
	.loc 6 544 45
	movq	-48(%rbp), %rax
	movq	%rax, %rdi
	call	_ZNKSt7__cxx1112basic_stringIcSt11char_traitsIcESaIcEE7_M_dataEv@PLT
	movq	%rax, %rbx
	.loc 6 544 62
	movq	-48(%rbp), %rax
	movq	%rax, %rdi
	call	_ZNKSt7__cxx1112basic_stringIcSt11char_traitsIcESaIcEE6lengthEv@PLT
	.loc 6 544 14
	addq	%rax, %rbx
	movq	-48(%rbp), %rax
	movq	%rax, %rdi
	call	_ZNKSt7__cxx1112basic_stringIcSt11char_traitsIcESaIcEE7_M_dataEv@PLT
	movq	%rax, %rcx
	movq	-40(%rbp), %rax
	movq	%rbx, %rdx
	movq	%rcx, %rsi
	movq	%rax, %rdi
.LEHB5:
	call	_ZNSt7__cxx1112basic_stringIcSt11char_traitsIcESaIcEE12_M_constructIPcEEvT_S7_St20forward_iterator_tag@PLT
.LEHE5:
.LBE23:
	.loc 6 546 7
	jmp	.L73
.L72:
	endbr64
.LBB24:
	movq	%rax, %rbx
	movq	-40(%rbp), %rax
	movq	%rax, %rdi
	call	_ZNSt7__cxx1112basic_stringIcSt11char_traitsIcESaIcEE12_Alloc_hiderD1Ev@PLT
	movq	%rbx, %rax
	movq	%rax, %rdi
.LEHB6:
	call	_Unwind_Resume@PLT
.LEHE6:
.L73:
.LBE24:
	movq	-24(%rbp), %rax
	subq	%fs:40, %rax
	je	.L71
	call	__stack_chk_fail@PLT
.L71:
	movq	-8(%rbp), %rbx
	leave
	.cfi_def_cfa 7, 8
	ret
	.cfi_endproc
.LFE8477:
	.section	.gcc_except_table._ZNSt7__cxx1112basic_stringIcSt11char_traitsIcESaIcEEC2ERKS4_,"aG",@progbits,_ZNSt7__cxx1112basic_stringIcSt11char_traitsIcESaIcEEC5ERKS4_,comdat
.LLSDA8477:
	.byte	0xff
	.byte	0xff
	.byte	0x1
	.uleb128 .LLSDACSE8477-.LLSDACSB8477
.LLSDACSB8477:
	.uleb128 .LEHB4-.LFB8477
	.uleb128 .LEHE4-.LEHB4
	.uleb128 0
	.uleb128 0
	.uleb128 .LEHB5-.LFB8477
	.uleb128 .LEHE5-.LEHB5
	.uleb128 .L72-.LFB8477
	.uleb128 0
	.uleb128 .LEHB6-.LFB8477
	.uleb128 .LEHE6-.LEHB6
	.uleb128 0
	.uleb128 0
.LLSDACSE8477:
	.section	.text._ZNSt7__cxx1112basic_stringIcSt11char_traitsIcESaIcEEC2ERKS4_,"axG",@progbits,_ZNSt7__cxx1112basic_stringIcSt11char_traitsIcESaIcEEC5ERKS4_,comdat
	.size	_ZNSt7__cxx1112basic_stringIcSt11char_traitsIcESaIcEEC2ERKS4_, .-_ZNSt7__cxx1112basic_stringIcSt11char_traitsIcESaIcEEC2ERKS4_
	.weak	_ZNSt7__cxx1112basic_stringIcSt11char_traitsIcESaIcEEC1ERKS4_
	.set	_ZNSt7__cxx1112basic_stringIcSt11char_traitsIcESaIcEEC1ERKS4_,_ZNSt7__cxx1112basic_stringIcSt11char_traitsIcESaIcEEC2ERKS4_
	.section	.rodata
	.align 8
.LC13:
	.string	"/usr/include/gtest/internal/gtest-internal.h"
	.align 8
.LC14:
	.string	"Condition !test_case_fp || !test_suite_fp failed. "
	.align 8
.LC15:
	.string	"Test can not provide both SetUpTestSuite and SetUpTestCase, please make sure there is only one present at "
	.section	.text._ZN7testing8internal16SuiteApiResolverINS_4TestEE19GetSetUpCaseOrSuiteEPKci,"axG",@progbits,_ZN7testing8internal16SuiteApiResolverINS_4TestEE19GetSetUpCaseOrSuiteEPKci,comdat
	.weak	_ZN7testing8internal16SuiteApiResolverINS_4TestEE19GetSetUpCaseOrSuiteEPKci
	.type	_ZN7testing8internal16SuiteApiResolverINS_4TestEE19GetSetUpCaseOrSuiteEPKci, @function
_ZN7testing8internal16SuiteApiResolverINS_4TestEE19GetSetUpCaseOrSuiteEPKci:
.LFB8830:
	.loc 7 521 37
	.cfi_startproc
	.cfi_personality 0x9b,DW.ref.__gxx_personality_v0
	.cfi_lsda 0x1b,.LLSDA8830
	endbr64
	pushq	%rbp
	.cfi_def_cfa_offset 16
	.cfi_offset 6, -16
	movq	%rsp, %rbp
	.cfi_def_cfa_register 6
	pushq	%rbx
	subq	$56, %rsp
	.cfi_offset 3, -24
	movq	%rdi, -56(%rbp)
	movl	%esi, -60(%rbp)
	.loc 7 521 37
	movq	%fs:40, %rax
	movq	%rax, -24(%rbp)
	xorl	%eax, %eax
	.loc 7 525 28
	movq	_ZN7testing4Test13SetUpTestCaseEv@GOTPCREL(%rip), %rax
	movq	%rax, %rsi
	movq	_ZN7testing4Test13SetUpTestCaseEv@GOTPCREL(%rip), %rax
	movq	%rax, %rdi
	call	_ZN7testing8internal19GetNotDefaultOrNullEPFvvES2_@PLT
	movq	%rax, -40(%rbp)
	.loc 7 527 28
	movq	_ZN7testing4Test14SetUpTestSuiteEv@GOTPCREL(%rip), %rax
	movq	%rax, %rsi
	movq	_ZN7testing4Test14SetUpTestSuiteEv@GOTPCREL(%rip), %rax
	movq	%rax, %rdi
	call	_ZN7testing8internal19GetNotDefaultOrNullEPFvvES2_@PLT
	movq	%rax, -32(%rbp)
	.loc 7 529 5
	cmpq	$0, -40(%rbp)
	je	.L75
	.loc 7 529 5 is_stmt 0 discriminator 3
	cmpq	$0, -32(%rbp)
	jne	.L76
.L75:
	.loc 7 529 5 discriminator 4
	movl	$1, %eax
	jmp	.L77
.L76:
	.loc 7 529 5 discriminator 5
	movl	$0, %eax
.L77:
	.loc 7 529 5 discriminator 7
	movzbl	%al, %eax
	movl	%eax, %edi
.LEHB7:
	call	_ZN7testing8internal6IsTrueEb@PLT
	testb	%al, %al
	jne	.L78
	.loc 7 529 5 discriminator 8
	leaq	-44(%rbp), %rax
	movl	$529, %ecx
	leaq	.LC13(%rip), %rdx
	movl	$3, %esi
	movq	%rax, %rdi
	call	_ZN7testing8internal8GTestLogC1ENS0_16GTestLogSeverityEPKci@PLT
.LEHE7:
	leaq	-44(%rbp), %rax
	movq	%rax, %rdi
	call	_ZN7testing8internal8GTestLog9GetStreamEv@PLT
	movq	%rax, %rdx
	.loc 7 532 21 is_stmt 1 discriminator 8
	leaq	.LC14(%rip), %rax
	movq	%rax, %rsi
	movq	%rdx, %rdi
.LEHB8:
	call	_ZStlsISt11char_traitsIcEERSt13basic_ostreamIcT_ES5_PKc@PLT
	movq	%rax, %rdx
	leaq	.LC15(%rip), %rax
	movq	%rax, %rsi
	movq	%rdx, %rdi
	call	_ZStlsISt11char_traitsIcEERSt13basic_ostreamIcT_ES5_PKc@PLT
	.loc 7 532 21 is_stmt 0 discriminator 1
	movq	%rax, %rdx
	movq	-56(%rbp), %rax
	movq	%rax, %rsi
	movq	%rdx, %rdi
	call	_ZStlsISt11char_traitsIcEERSt13basic_ostreamIcT_ES5_PKc@PLT
	.loc 7 532 21 discriminator 2
	movq	%rax, %rdx
	leaq	.LC8(%rip), %rax
	movq	%rax, %rsi
	movq	%rdx, %rdi
	call	_ZStlsISt11char_traitsIcEERSt13basic_ostreamIcT_ES5_PKc@PLT
	.loc 7 532 21 discriminator 3
	movq	%rax, %rdx
	.loc 7 532 28 is_stmt 1 discriminator 3
	movl	-60(%rbp), %eax
	movl	%eax, %esi
	movq	%rdx, %rdi
	call	_ZNSolsEi@PLT
.LEHE8:
	.loc 7 529 5
	leaq	-44(%rbp), %rax
	movq	%rax, %rdi
	call	_ZN7testing8internal8GTestLogD1Ev@PLT
.L78:
	.loc 7 534 36
	cmpq	$0, -40(%rbp)
	je	.L79
	.loc 7 534 36 is_stmt 0 discriminator 1
	movq	-40(%rbp), %rax
	.loc 7 534 53 is_stmt 1 discriminator 1
	jmp	.L81
.L79:
	.loc 7 534 36 discriminator 2
	movq	-32(%rbp), %rax
.L81:
	.loc 7 540 3 discriminator 5
	movq	-24(%rbp), %rdx
	subq	%fs:40, %rdx
	je	.L83
	jmp	.L85
.L84:
	endbr64
	.loc 7 529 5
	movq	%rax, %rbx
	leaq	-44(%rbp), %rax
	movq	%rax, %rdi
	call	_ZN7testing8internal8GTestLogD1Ev@PLT
	movq	%rbx, %rax
	movq	%rax, %rdi
.LEHB9:
	call	_Unwind_Resume@PLT
.LEHE9:
.L85:
	.loc 7 540 3
	call	__stack_chk_fail@PLT
.L83:
	movq	-8(%rbp), %rbx
	leave
	.cfi_def_cfa 7, 8
	ret
	.cfi_endproc
.LFE8830:
	.section	.gcc_except_table._ZN7testing8internal16SuiteApiResolverINS_4TestEE19GetSetUpCaseOrSuiteEPKci,"aG",@progbits,_ZN7testing8internal16SuiteApiResolverINS_4TestEE19GetSetUpCaseOrSuiteEPKci,comdat
.LLSDA8830:
	.byte	0xff
	.byte	0xff
	.byte	0x1
	.uleb128 .LLSDACSE8830-.LLSDACSB8830
.LLSDACSB8830:
	.uleb128 .LEHB7-.LFB8830
	.uleb128 .LEHE7-.LEHB7
	.uleb128 0
	.uleb128 0
	.uleb128 .LEHB8-.LFB8830
	.uleb128 .LEHE8-.LEHB8
	.uleb128 .L84-.LFB8830
	.uleb128 0
	.uleb128 .LEHB9-.LFB8830
	.uleb128 .LEHE9-.LEHB9
	.uleb128 0
	.uleb128 0
.LLSDACSE8830:
	.section	.text._ZN7testing8internal16SuiteApiResolverINS_4TestEE19GetSetUpCaseOrSuiteEPKci,"axG",@progbits,_ZN7testing8internal16SuiteApiResolverINS_4TestEE19GetSetUpCaseOrSuiteEPKci,comdat
	.size	_ZN7testing8internal16SuiteApiResolverINS_4TestEE19GetSetUpCaseOrSuiteEPKci, .-_ZN7testing8internal16SuiteApiResolverINS_4TestEE19GetSetUpCaseOrSuiteEPKci
	.section	.rodata
	.align 8
.LC16:
	.string	"Test can not provide both TearDownTestSuite and TearDownTestCase, please make sure there is only one present at"
	.section	.text._ZN7testing8internal16SuiteApiResolverINS_4TestEE22GetTearDownCaseOrSuiteEPKci,"axG",@progbits,_ZN7testing8internal16SuiteApiResolverINS_4TestEE22GetTearDownCaseOrSuiteEPKci,comdat
	.weak	_ZN7testing8internal16SuiteApiResolverINS_4TestEE22GetTearDownCaseOrSuiteEPKci
	.type	_ZN7testing8internal16SuiteApiResolverINS_4TestEE22GetTearDownCaseOrSuiteEPKci, @function
_ZN7testing8internal16SuiteApiResolverINS_4TestEE22GetTearDownCaseOrSuiteEPKci:
.LFB8831:
	.loc 7 542 37
	.cfi_startproc
	.cfi_personality 0x9b,DW.ref.__gxx_personality_v0
	.cfi_lsda 0x1b,.LLSDA8831
	endbr64
	pushq	%rbp
	.cfi_def_cfa_offset 16
	.cfi_offset 6, -16
	movq	%rsp, %rbp
	.cfi_def_cfa_register 6
	pushq	%rbx
	subq	$56, %rsp
	.cfi_offset 3, -24
	movq	%rdi, -56(%rbp)
	movl	%esi, -60(%rbp)
	.loc 7 542 37
	movq	%fs:40, %rax
	movq	%rax, -24(%rbp)
	xorl	%eax, %eax
	.loc 7 546 28
	movq	_ZN7testing4Test16TearDownTestCaseEv@GOTPCREL(%rip), %rax
	movq	%rax, %rsi
	movq	_ZN7testing4Test16TearDownTestCaseEv@GOTPCREL(%rip), %rax
	movq	%rax, %rdi
	call	_ZN7testing8internal19GetNotDefaultOrNullEPFvvES2_@PLT
	movq	%rax, -40(%rbp)
	.loc 7 548 28
	movq	_ZN7testing4Test17TearDownTestSuiteEv@GOTPCREL(%rip), %rax
	movq	%rax, %rsi
	movq	_ZN7testing4Test17TearDownTestSuiteEv@GOTPCREL(%rip), %rax
	movq	%rax, %rdi
	call	_ZN7testing8internal19GetNotDefaultOrNullEPFvvES2_@PLT
	movq	%rax, -32(%rbp)
	.loc 7 550 5
	cmpq	$0, -40(%rbp)
	je	.L87
	.loc 7 550 5 is_stmt 0 discriminator 3
	cmpq	$0, -32(%rbp)
	jne	.L88
.L87:
	.loc 7 550 5 discriminator 4
	movl	$1, %eax
	jmp	.L89
.L88:
	.loc 7 550 5 discriminator 5
	movl	$0, %eax
.L89:
	.loc 7 550 5 discriminator 7
	movzbl	%al, %eax
	movl	%eax, %edi
.LEHB10:
	call	_ZN7testing8internal6IsTrueEb@PLT
	testb	%al, %al
	jne	.L90
	.loc 7 550 5 discriminator 8
	leaq	-44(%rbp), %rax
	movl	$550, %ecx
	leaq	.LC13(%rip), %rdx
	movl	$3, %esi
	movq	%rax, %rdi
	call	_ZN7testing8internal8GTestLogC1ENS0_16GTestLogSeverityEPKci@PLT
.LEHE10:
	leaq	-44(%rbp), %rax
	movq	%rax, %rdi
	call	_ZN7testing8internal8GTestLog9GetStreamEv@PLT
	movq	%rax, %rdx
	.loc 7 553 21 is_stmt 1 discriminator 8
	leaq	.LC14(%rip), %rax
	movq	%rax, %rsi
	movq	%rdx, %rdi
.LEHB11:
	call	_ZStlsISt11char_traitsIcEERSt13basic_ostreamIcT_ES5_PKc@PLT
	movq	%rax, %rdx
	leaq	.LC16(%rip), %rax
	movq	%rax, %rsi
	movq	%rdx, %rdi
	call	_ZStlsISt11char_traitsIcEERSt13basic_ostreamIcT_ES5_PKc@PLT
	.loc 7 553 21 is_stmt 0 discriminator 1
	movq	%rax, %rdx
	movq	-56(%rbp), %rax
	movq	%rax, %rsi
	movq	%rdx, %rdi
	call	_ZStlsISt11char_traitsIcEERSt13basic_ostreamIcT_ES5_PKc@PLT
	.loc 7 553 21 discriminator 2
	movq	%rax, %rdx
	leaq	.LC8(%rip), %rax
	movq	%rax, %rsi
	movq	%rdx, %rdi
	call	_ZStlsISt11char_traitsIcEERSt13basic_ostreamIcT_ES5_PKc@PLT
	.loc 7 553 21 discriminator 3
	movq	%rax, %rdx
	.loc 7 553 28 is_stmt 1 discriminator 3
	movl	-60(%rbp), %eax
	movl	%eax, %esi
	movq	%rdx, %rdi
	call	_ZNSolsEi@PLT
.LEHE11:
	.loc 7 550 5
	leaq	-44(%rbp), %rax
	movq	%rax, %rdi
	call	_ZN7testing8internal8GTestLogD1Ev@PLT
.L90:
	.loc 7 555 36
	cmpq	$0, -40(%rbp)
	je	.L91
	.loc 7 555 36 is_stmt 0 discriminator 1
	movq	-40(%rbp), %rax
	.loc 7 555 53 is_stmt 1 discriminator 1
	jmp	.L93
.L91:
	.loc 7 555 36 discriminator 2
	movq	-32(%rbp), %rax
.L93:
	.loc 7 561 3 discriminator 5
	movq	-24(%rbp), %rdx
	subq	%fs:40, %rdx
	je	.L95
	jmp	.L97
.L96:
	endbr64
	.loc 7 550 5
	movq	%rax, %rbx
	leaq	-44(%rbp), %rax
	movq	%rax, %rdi
	call	_ZN7testing8internal8GTestLogD1Ev@PLT
	movq	%rbx, %rax
	movq	%rax, %rdi
.LEHB12:
	call	_Unwind_Resume@PLT
.LEHE12:
.L97:
	.loc 7 561 3
	call	__stack_chk_fail@PLT
.L95:
	movq	-8(%rbp), %rbx
	leave
	.cfi_def_cfa 7, 8
	ret
	.cfi_endproc
.LFE8831:
	.section	.gcc_except_table._ZN7testing8internal16SuiteApiResolverINS_4TestEE22GetTearDownCaseOrSuiteEPKci,"aG",@progbits,_ZN7testing8internal16SuiteApiResolverINS_4TestEE22GetTearDownCaseOrSuiteEPKci,comdat
.LLSDA8831:
	.byte	0xff
	.byte	0xff
	.byte	0x1
	.uleb128 .LLSDACSE8831-.LLSDACSB8831
.LLSDACSB8831:
	.uleb128 .LEHB10-.LFB8831
	.uleb128 .LEHE10-.LEHB10
	.uleb128 0
	.uleb128 0
	.uleb128 .LEHB11-.LFB8831
	.uleb128 .LEHE11-.LEHB11
	.uleb128 .L96-.LFB8831
	.uleb128 0
	.uleb128 .LEHB12-.LFB8831
	.uleb128 .LEHE12-.LEHB12
	.uleb128 0
	.uleb128 0
.LLSDACSE8831:
	.section	.text._ZN7testing8internal16SuiteApiResolverINS_4TestEE22GetTearDownCaseOrSuiteEPKci,"axG",@progbits,_ZN7testing8internal16SuiteApiResolverINS_4TestEE22GetTearDownCaseOrSuiteEPKci,comdat
	.size	_ZN7testing8internal16SuiteApiResolverINS_4TestEE22GetTearDownCaseOrSuiteEPKci, .-_ZN7testing8internal16SuiteApiResolverINS_4TestEE22GetTearDownCaseOrSuiteEPKci
	.section	.text._ZN10tag_invoke9view_base6detail6Show_tclINS_13customization7ImgViewEEEvRT_,"axG",@progbits,_ZN10tag_invoke9view_base6detail6Show_tclINS_13customization7ImgViewEEEvRT_,comdat
	.align 2
	.weak	_ZN10tag_invoke9view_base6detail6Show_tclINS_13customization7ImgViewEEEvRT_
	.type	_ZN10tag_invoke9view_base6detail6Show_tclINS_13customization7ImgViewEEEvRT_, @function
_ZN10tag_invoke9view_base6detail6Show_tclINS_13customization7ImgViewEEEvRT_:
.LFB8832:
	.loc 10 36 8
	.cfi_startproc
	endbr64
	pushq	%rbp
	.cfi_def_cfa_offset 16
	.cfi_offset 6, -16
	movq	%rsp, %rbp
	.cfi_def_cfa_register 6
	subq	$16, %rsp
	movq	%rdi, -8(%rbp)
	movq	%rsi, -16(%rbp)
	.loc 10 37 15
	movq	-16(%rbp), %rax
	movq	%rax, %rdi
	call	_ZN10tag_invoke13customization10tag_invokeENS_9view_base6detail6Show_tERNS0_7ImgViewE@PLT
	.loc 10 38 3
	nop
	leave
	.cfi_def_cfa 7, 8
	ret
	.cfi_endproc
.LFE8832:
	.size	_ZN10tag_invoke9view_base6detail6Show_tclINS_13customization7ImgViewEEEvRT_, .-_ZN10tag_invoke9view_base6detail6Show_tclINS_13customization7ImgViewEEEvRT_
	.section	.text._ZN10tag_invoke9view_base6detail6Show_tclINS_13customization8VoidViewEEEvRT_,"axG",@progbits,_ZN10tag_invoke9view_base6detail6Show_tclINS_13customization8VoidViewEEEvRT_,comdat
	.align 2
	.weak	_ZN10tag_invoke9view_base6detail6Show_tclINS_13customization8VoidViewEEEvRT_
	.type	_ZN10tag_invoke9view_base6detail6Show_tclINS_13customization8VoidViewEEEvRT_, @function
_ZN10tag_invoke9view_base6detail6Show_tclINS_13customization8VoidViewEEEvRT_:
.LFB8833:
	.loc 10 36 8
	.cfi_startproc
	endbr64
	pushq	%rbp
	.cfi_def_cfa_offset 16
	.cfi_offset 6, -16
	movq	%rsp, %rbp
	.cfi_def_cfa_register 6
	subq	$16, %rsp
	movq	%rdi, -8(%rbp)
	movq	%rsi, -16(%rbp)
	.loc 10 37 15
	movq	-16(%rbp), %rax
	movq	%rax, %rdi
	call	_ZN10tag_invoke9view_base6detail10tag_invokeINS_13customization8VoidViewEEEvNS1_6Show_tERT_@PLT
	.loc 10 38 3
	nop
	leave
	.cfi_def_cfa 7, 8
	ret
	.cfi_endproc
.LFE8833:
	.size	_ZN10tag_invoke9view_base6detail6Show_tclINS_13customization8VoidViewEEEvRT_, .-_ZN10tag_invoke9view_base6detail6Show_tclINS_13customization8VoidViewEEEvRT_
	.section	.text._ZSt7forwardIRKcEOT_RNSt16remove_referenceIS2_E4typeE,"axG",@progbits,_ZSt7forwardIRKcEOT_RNSt16remove_referenceIS2_E4typeE,comdat
	.weak	_ZSt7forwardIRKcEOT_RNSt16remove_referenceIS2_E4typeE
	.type	_ZSt7forwardIRKcEOT_RNSt16remove_referenceIS2_E4typeE, @function
_ZSt7forwardIRKcEOT_RNSt16remove_referenceIS2_E4typeE:
.LFB8834:
	.file 12 "/usr/include/c++/12/bits/move.h"
	.loc 12 77 5
	.cfi_startproc
	endbr64
	pushq	%rbp
	.cfi_def_cfa_offset 16
	.cfi_offset 6, -16
	movq	%rsp, %rbp
	.cfi_def_cfa_register 6
	movq	%rdi, -8(%rbp)
	.loc 12 78 36
	movq	-8(%rbp), %rax
	.loc 12 78 39
	popq	%rbp
	.cfi_def_cfa 7, 8
	ret
	.cfi_endproc
.LFE8834:
	.size	_ZSt7forwardIRKcEOT_RNSt16remove_referenceIS2_E4typeE, .-_ZSt7forwardIRKcEOT_RNSt16remove_referenceIS2_E4typeE
	.section	.text._ZN9__gnu_cxx11char_traitsIcE2eqERKcS3_,"axG",@progbits,_ZN9__gnu_cxx11char_traitsIcE2eqERKcS3_,comdat
	.weak	_ZN9__gnu_cxx11char_traitsIcE2eqERKcS3_
	.type	_ZN9__gnu_cxx11char_traitsIcE2eqERKcS3_, @function
_ZN9__gnu_cxx11char_traitsIcE2eqERKcS3_:
.LFB8835:
	.loc 4 121 7
	.cfi_startproc
	endbr64
	pushq	%rbp
	.cfi_def_cfa_offset 16
	.cfi_offset 6, -16
	movq	%rsp, %rbp
	.cfi_def_cfa_register 6
	movq	%rdi, -8(%rbp)
	movq	%rsi, -16(%rbp)
	.loc 4 122 21
	movq	-8(%rbp), %rax
	movzbl	(%rax), %edx
	movq	-16(%rbp), %rax
	movzbl	(%rax), %eax
	.loc 4 122 24
	cmpb	%al, %dl
	sete	%al
	.loc 4 122 30
	popq	%rbp
	.cfi_def_cfa 7, 8
	ret
	.cfi_endproc
.LFE8835:
	.size	_ZN9__gnu_cxx11char_traitsIcE2eqERKcS3_, .-_ZN9__gnu_cxx11char_traitsIcE2eqERKcS3_
	.section	.text._ZNSt7__cxx1112basic_stringIcSt11char_traitsIcESaIcEE13_M_local_dataEv,"axG",@progbits,_ZNSt7__cxx1112basic_stringIcSt11char_traitsIcESaIcEE13_M_local_dataEv,comdat
	.align 2
	.weak	_ZNSt7__cxx1112basic_stringIcSt11char_traitsIcESaIcEE13_M_local_dataEv
	.type	_ZNSt7__cxx1112basic_stringIcSt11char_traitsIcESaIcEE13_M_local_dataEv, @function
_ZNSt7__cxx1112basic_stringIcSt11char_traitsIcESaIcEE13_M_local_dataEv:
.LFB8850:
	.loc 6 239 7
	.cfi_startproc
	endbr64
	pushq	%rbp
	.cfi_def_cfa_offset 16
	.cfi_offset 6, -16
	movq	%rsp, %rbp
	.cfi_def_cfa_register 6
	subq	$16, %rsp
	movq	%rdi, -8(%rbp)
	.loc 6 242 51
	movq	-8(%rbp), %rax
	addq	$16, %rax
	.loc 6 242 49
	movq	%rax, %rdi
	call	_ZNSt19__ptr_traits_ptr_toIPccLb0EE10pointer_toERc@PLT
	.loc 6 246 7
	leave
	.cfi_def_cfa 7, 8
	ret
	.cfi_endproc
.LFE8850:
	.size	_ZNSt7__cxx1112basic_stringIcSt11char_traitsIcESaIcEE13_M_local_dataEv, .-_ZNSt7__cxx1112basic_stringIcSt11char_traitsIcESaIcEE13_M_local_dataEv
	.section	.text._ZNSt7__cxx1112basic_stringIcSt11char_traitsIcESaIcEE12_Alloc_hiderC2EPcRKS3_,"axG",@progbits,_ZNSt7__cxx1112basic_stringIcSt11char_traitsIcESaIcEE12_Alloc_hiderC5EPcRKS3_,comdat
	.align 2
	.weak	_ZNSt7__cxx1112basic_stringIcSt11char_traitsIcESaIcEE12_Alloc_hiderC2EPcRKS3_
	.type	_ZNSt7__cxx1112basic_stringIcSt11char_traitsIcESaIcEE12_Alloc_hiderC2EPcRKS3_, @function
_ZNSt7__cxx1112basic_stringIcSt11char_traitsIcESaIcEE12_Alloc_hiderC2EPcRKS3_:
.LFB8852:
	.loc 6 200 2
	.cfi_startproc
	endbr64
	pushq	%rbp
	.cfi_def_cfa_offset 16
	.cfi_offset 6, -16
	movq	%rsp, %rbp
	.cfi_def_cfa_register 6
	subq	$32, %rsp
	movq	%rdi, -8(%rbp)
	movq	%rsi, -16(%rbp)
	movq	%rdx, -24(%rbp)
.LBB25:
	.loc 6 201 35
	movq	-24(%rbp), %rdx
	movq	-8(%rbp), %rax
	movq	%rdx, %rsi
	movq	%rax, %rdi
	call	_ZNSaIcEC2ERKS_@PLT
	.loc 6 201 25
	movq	-8(%rbp), %rax
	movq	-16(%rbp), %rdx
	movq	%rdx, (%rax)
.LBE25:
	.loc 6 201 39
	nop
	leave
	.cfi_def_cfa 7, 8
	ret
	.cfi_endproc
.LFE8852:
	.size	_ZNSt7__cxx1112basic_stringIcSt11char_traitsIcESaIcEE12_Alloc_hiderC2EPcRKS3_, .-_ZNSt7__cxx1112basic_stringIcSt11char_traitsIcESaIcEE12_Alloc_hiderC2EPcRKS3_
	.weak	_ZNSt7__cxx1112basic_stringIcSt11char_traitsIcESaIcEE12_Alloc_hiderC1EPcRKS3_
	.set	_ZNSt7__cxx1112basic_stringIcSt11char_traitsIcESaIcEE12_Alloc_hiderC1EPcRKS3_,_ZNSt7__cxx1112basic_stringIcSt11char_traitsIcESaIcEE12_Alloc_hiderC2EPcRKS3_
	.section	.text._ZNSt7__cxx1112basic_stringIcSt11char_traitsIcESaIcEE10_M_disposeEv,"axG",@progbits,_ZNSt7__cxx1112basic_stringIcSt11char_traitsIcESaIcEE10_M_disposeEv,comdat
	.align 2
	.weak	_ZNSt7__cxx1112basic_stringIcSt11char_traitsIcESaIcEE10_M_disposeEv
	.type	_ZNSt7__cxx1112basic_stringIcSt11char_traitsIcESaIcEE10_M_disposeEv, @function
_ZNSt7__cxx1112basic_stringIcSt11char_traitsIcESaIcEE10_M_disposeEv:
.LFB8855:
	.loc 6 284 7
	.cfi_startproc
	endbr64
	pushq	%rbp
	.cfi_def_cfa_offset 16
	.cfi_offset 6, -16
	movq	%rsp, %rbp
	.cfi_def_cfa_register 6
	subq	$16, %rsp
	movq	%rdi, -8(%rbp)
	.loc 6 286 18
	movq	-8(%rbp), %rax
	movq	%rax, %rdi
	call	_ZNKSt7__cxx1112basic_stringIcSt11char_traitsIcESaIcEE11_M_is_localEv@PLT
	xorl	$1, %eax
	.loc 6 286 2
	testb	%al, %al
	je	.L109
	.loc 6 287 14
	movq	-8(%rbp), %rax
	movq	16(%rax), %rdx
	movq	-8(%rbp), %rax
	movq	%rdx, %rsi
	movq	%rax, %rdi
	call	_ZNSt7__cxx1112basic_stringIcSt11char_traitsIcESaIcEE10_M_destroyEm@PLT
.L109:
	.loc 6 288 7
	nop
	leave
	.cfi_def_cfa 7, 8
	ret
	.cfi_endproc
.LFE8855:
	.size	_ZNSt7__cxx1112basic_stringIcSt11char_traitsIcESaIcEE10_M_disposeEv, .-_ZNSt7__cxx1112basic_stringIcSt11char_traitsIcESaIcEE10_M_disposeEv
	.section	.text._ZNSt7__cxx1112basic_stringIcSt11char_traitsIcESaIcEE16_M_get_allocatorEv,"axG",@progbits,_ZNSt7__cxx1112basic_stringIcSt11char_traitsIcESaIcEE16_M_get_allocatorEv,comdat
	.align 2
	.weak	_ZNSt7__cxx1112basic_stringIcSt11char_traitsIcESaIcEE16_M_get_allocatorEv
	.type	_ZNSt7__cxx1112basic_stringIcSt11char_traitsIcESaIcEE16_M_get_allocatorEv, @function
_ZNSt7__cxx1112basic_stringIcSt11char_traitsIcESaIcEE16_M_get_allocatorEv:
.LFB8856:
	.loc 6 340 7
	.cfi_startproc
	endbr64
	pushq	%rbp
	.cfi_def_cfa_offset 16
	.cfi_offset 6, -16
	movq	%rsp, %rbp
	.cfi_def_cfa_register 6
	movq	%rdi, -8(%rbp)
	.loc 6 341 16
	movq	-8(%rbp), %rax
	.loc 6 341 29
	popq	%rbp
	.cfi_def_cfa 7, 8
	ret
	.cfi_endproc
.LFE8856:
	.size	_ZNSt7__cxx1112basic_stringIcSt11char_traitsIcESaIcEE16_M_get_allocatorEv, .-_ZNSt7__cxx1112basic_stringIcSt11char_traitsIcESaIcEE16_M_get_allocatorEv
	.section	.text._ZSt4moveIRSaIcEEONSt16remove_referenceIT_E4typeEOS3_,"axG",@progbits,_ZSt4moveIRSaIcEEONSt16remove_referenceIT_E4typeEOS3_,comdat
	.weak	_ZSt4moveIRSaIcEEONSt16remove_referenceIT_E4typeEOS3_
	.type	_ZSt4moveIRSaIcEEONSt16remove_referenceIT_E4typeEOS3_, @function
_ZSt4moveIRSaIcEEONSt16remove_referenceIT_E4typeEOS3_:
.LFB8857:
	.loc 12 104 5
	.cfi_startproc
	endbr64
	pushq	%rbp
	.cfi_def_cfa_offset 16
	.cfi_offset 6, -16
	movq	%rsp, %rbp
	.cfi_def_cfa_register 6
	movq	%rdi, -8(%rbp)
	.loc 12 105 74
	movq	-8(%rbp), %rax
	.loc 12 105 77
	popq	%rbp
	.cfi_def_cfa 7, 8
	ret
	.cfi_endproc
.LFE8857:
	.size	_ZSt4moveIRSaIcEEONSt16remove_referenceIT_E4typeEOS3_, .-_ZSt4moveIRSaIcEEONSt16remove_referenceIT_E4typeEOS3_
	.section	.text._ZNSt7__cxx1112basic_stringIcSt11char_traitsIcESaIcEE12_Alloc_hiderC2EPcOS3_,"axG",@progbits,_ZNSt7__cxx1112basic_stringIcSt11char_traitsIcESaIcEE12_Alloc_hiderC5EPcOS3_,comdat
	.align 2
	.weak	_ZNSt7__cxx1112basic_stringIcSt11char_traitsIcESaIcEE12_Alloc_hiderC2EPcOS3_
	.type	_ZNSt7__cxx1112basic_stringIcSt11char_traitsIcESaIcEE12_Alloc_hiderC2EPcOS3_, @function
_ZNSt7__cxx1112basic_stringIcSt11char_traitsIcESaIcEE12_Alloc_hiderC2EPcOS3_:
.LFB8859:
	.loc 6 204 2
	.cfi_startproc
	endbr64
	pushq	%rbp
	.cfi_def_cfa_offset 16
	.cfi_offset 6, -16
	movq	%rsp, %rbp
	.cfi_def_cfa_register 6
	subq	$32, %rsp
	movq	%rdi, -8(%rbp)
	movq	%rsi, -16(%rbp)
	movq	%rdx, -24(%rbp)
.LBB26:
	.loc 6 205 28
	movq	-24(%rbp), %rax
	movq	%rax, %rdi
	call	_ZSt4moveIRSaIcEEONSt16remove_referenceIT_E4typeEOS3_@PLT
	movq	%rax, %rdx
	.loc 6 205 46
	movq	-8(%rbp), %rax
	movq	%rdx, %rsi
	movq	%rax, %rdi
	call	_ZNSaIcEC2ERKS_@PLT
	.loc 6 205 36
	movq	-8(%rbp), %rax
	movq	-16(%rbp), %rdx
	movq	%rdx, (%rax)
.LBE26:
	.loc 6 205 50
	nop
	leave
	.cfi_def_cfa 7, 8
	ret
	.cfi_endproc
.LFE8859:
	.size	_ZNSt7__cxx1112basic_stringIcSt11char_traitsIcESaIcEE12_Alloc_hiderC2EPcOS3_, .-_ZNSt7__cxx1112basic_stringIcSt11char_traitsIcESaIcEE12_Alloc_hiderC2EPcOS3_
	.weak	_ZNSt7__cxx1112basic_stringIcSt11char_traitsIcESaIcEE12_Alloc_hiderC1EPcOS3_
	.set	_ZNSt7__cxx1112basic_stringIcSt11char_traitsIcESaIcEE12_Alloc_hiderC1EPcOS3_,_ZNSt7__cxx1112basic_stringIcSt11char_traitsIcESaIcEE12_Alloc_hiderC2EPcOS3_
	.section	.text._ZNKSt7__cxx1112basic_stringIcSt11char_traitsIcESaIcEE11_M_is_localEv,"axG",@progbits,_ZNKSt7__cxx1112basic_stringIcSt11char_traitsIcESaIcEE11_M_is_localEv,comdat
	.align 2
	.weak	_ZNKSt7__cxx1112basic_stringIcSt11char_traitsIcESaIcEE11_M_is_localEv
	.type	_ZNKSt7__cxx1112basic_stringIcSt11char_traitsIcESaIcEE11_M_is_localEv, @function
_ZNKSt7__cxx1112basic_stringIcSt11char_traitsIcESaIcEE11_M_is_localEv:
.LFB8861:
	.loc 6 274 7
	.cfi_startproc
	endbr64
	pushq	%rbp
	.cfi_def_cfa_offset 16
	.cfi_offset 6, -16
	movq	%rsp, %rbp
	.cfi_def_cfa_register 6
	pushq	%rbx
	subq	$24, %rsp
	.cfi_offset 3, -24
	movq	%rdi, -24(%rbp)
	.loc 6 275 23
	movq	-24(%rbp), %rax
	movq	%rax, %rdi
	call	_ZNKSt7__cxx1112basic_stringIcSt11char_traitsIcESaIcEE7_M_dataEv@PLT
	movq	%rax, %rbx
	.loc 6 275 42
	movq	-24(%rbp), %rax
	movq	%rax, %rdi
	call	_ZNKSt7__cxx1112basic_stringIcSt11char_traitsIcESaIcEE13_M_local_dataEv@PLT
	.loc 6 275 43
	cmpq	%rax, %rbx
	sete	%al
	.loc 6 275 46
	movq	-8(%rbp), %rbx
	leave
	.cfi_def_cfa 7, 8
	ret
	.cfi_endproc
.LFE8861:
	.size	_ZNKSt7__cxx1112basic_stringIcSt11char_traitsIcESaIcEE11_M_is_localEv, .-_ZNKSt7__cxx1112basic_stringIcSt11char_traitsIcESaIcEE11_M_is_localEv
	.section	.text._ZNSt7__cxx1112basic_stringIcSt11char_traitsIcESaIcEE7_M_dataEPc,"axG",@progbits,_ZNSt7__cxx1112basic_stringIcSt11char_traitsIcESaIcEE7_M_dataEPc,comdat
	.align 2
	.weak	_ZNSt7__cxx1112basic_stringIcSt11char_traitsIcESaIcEE7_M_dataEPc
	.type	_ZNSt7__cxx1112basic_stringIcSt11char_traitsIcESaIcEE7_M_dataEPc, @function
_ZNSt7__cxx1112basic_stringIcSt11char_traitsIcESaIcEE7_M_dataEPc:
.LFB8862:
	.loc 6 224 7
	.cfi_startproc
	endbr64
	pushq	%rbp
	.cfi_def_cfa_offset 16
	.cfi_offset 6, -16
	movq	%rsp, %rbp
	.cfi_def_cfa_register 6
	movq	%rdi, -8(%rbp)
	movq	%rsi, -16(%rbp)
	.loc 6 225 26
	movq	-8(%rbp), %rax
	movq	-16(%rbp), %rdx
	movq	%rdx, (%rax)
	.loc 6 225 33
	nop
	popq	%rbp
	.cfi_def_cfa 7, 8
	ret
	.cfi_endproc
.LFE8862:
	.size	_ZNSt7__cxx1112basic_stringIcSt11char_traitsIcESaIcEE7_M_dataEPc, .-_ZNSt7__cxx1112basic_stringIcSt11char_traitsIcESaIcEE7_M_dataEPc
	.section	.text._ZNSt7__cxx1112basic_stringIcSt11char_traitsIcESaIcEE11_M_capacityEm,"axG",@progbits,_ZNSt7__cxx1112basic_stringIcSt11char_traitsIcESaIcEE11_M_capacityEm,comdat
	.align 2
	.weak	_ZNSt7__cxx1112basic_stringIcSt11char_traitsIcESaIcEE11_M_capacityEm
	.type	_ZNSt7__cxx1112basic_stringIcSt11char_traitsIcESaIcEE11_M_capacityEm, @function
_ZNSt7__cxx1112basic_stringIcSt11char_traitsIcESaIcEE11_M_capacityEm:
.LFB8863:
	.loc 6 261 7
	.cfi_startproc
	endbr64
	pushq	%rbp
	.cfi_def_cfa_offset 16
	.cfi_offset 6, -16
	movq	%rsp, %rbp
	.cfi_def_cfa_register 6
	movq	%rdi, -8(%rbp)
	movq	%rsi, -16(%rbp)
	.loc 6 262 31
	movq	-8(%rbp), %rax
	movq	-16(%rbp), %rdx
	movq	%rdx, 16(%rax)
	.loc 6 262 45
	nop
	popq	%rbp
	.cfi_def_cfa 7, 8
	ret
	.cfi_endproc
.LFE8863:
	.size	_ZNSt7__cxx1112basic_stringIcSt11char_traitsIcESaIcEE11_M_capacityEm, .-_ZNSt7__cxx1112basic_stringIcSt11char_traitsIcESaIcEE11_M_capacityEm
	.section	.text._ZNSt7__cxx1112basic_stringIcSt11char_traitsIcESaIcEE9_M_lengthEm,"axG",@progbits,_ZNSt7__cxx1112basic_stringIcSt11char_traitsIcESaIcEE9_M_lengthEm,comdat
	.align 2
	.weak	_ZNSt7__cxx1112basic_stringIcSt11char_traitsIcESaIcEE9_M_lengthEm
	.type	_ZNSt7__cxx1112basic_stringIcSt11char_traitsIcESaIcEE9_M_lengthEm, @function
_ZNSt7__cxx1112basic_stringIcSt11char_traitsIcESaIcEE9_M_lengthEm:
.LFB8864:
	.loc 6 229 7
	.cfi_startproc
	endbr64
	pushq	%rbp
	.cfi_def_cfa_offset 16
	.cfi_offset 6, -16
	movq	%rsp, %rbp
	.cfi_def_cfa_register 6
	movq	%rdi, -8(%rbp)
	movq	%rsi, -16(%rbp)
	.loc 6 230 26
	movq	-8(%rbp), %rax
	movq	-16(%rbp), %rdx
	movq	%rdx, 8(%rax)
	.loc 6 230 38
	nop
	popq	%rbp
	.cfi_def_cfa 7, 8
	ret
	.cfi_endproc
.LFE8864:
	.size	_ZNSt7__cxx1112basic_stringIcSt11char_traitsIcESaIcEE9_M_lengthEm, .-_ZNSt7__cxx1112basic_stringIcSt11char_traitsIcESaIcEE9_M_lengthEm
	.section	.text._ZNSt7__cxx1112basic_stringIcSt11char_traitsIcESaIcEE13_M_set_lengthEm,"axG",@progbits,_ZNSt7__cxx1112basic_stringIcSt11char_traitsIcESaIcEE13_M_set_lengthEm,comdat
	.align 2
	.weak	_ZNSt7__cxx1112basic_stringIcSt11char_traitsIcESaIcEE13_M_set_lengthEm
	.type	_ZNSt7__cxx1112basic_stringIcSt11char_traitsIcESaIcEE13_M_set_lengthEm, @function
_ZNSt7__cxx1112basic_stringIcSt11char_traitsIcESaIcEE13_M_set_lengthEm:
.LFB8865:
	.loc 6 266 7
	.cfi_startproc
	endbr64
	pushq	%rbp
	.cfi_def_cfa_offset 16
	.cfi_offset 6, -16
	movq	%rsp, %rbp
	.cfi_def_cfa_register 6
	subq	$32, %rsp
	movq	%rdi, -24(%rbp)
	movq	%rsi, -32(%rbp)
	.loc 6 266 7
	movq	%fs:40, %rax
	movq	%rax, -8(%rbp)
	xorl	%eax, %eax
	.loc 6 268 11
	movq	-32(%rbp), %rdx
	movq	-24(%rbp), %rax
	movq	%rdx, %rsi
	movq	%rax, %rdi
	call	_ZNSt7__cxx1112basic_stringIcSt11char_traitsIcESaIcEE9_M_lengthEm@PLT
	.loc 6 269 21
	movb	$0, -9(%rbp)
	.loc 6 269 29
	movq	-24(%rbp), %rax
	movq	%rax, %rdi
	call	_ZNKSt7__cxx1112basic_stringIcSt11char_traitsIcESaIcEE7_M_dataEv@PLT
	.loc 6 269 31
	movq	-32(%rbp), %rdx
	addq	%rax, %rdx
	.loc 6 269 21
	leaq	-9(%rbp), %rax
	movq	%rax, %rsi
	movq	%rdx, %rdi
	call	_ZNSt11char_traitsIcE6assignERcRKc@PLT
	.loc 6 270 7
	nop
	movq	-8(%rbp), %rax
	subq	%fs:40, %rax
	je	.L121
	call	__stack_chk_fail@PLT
.L121:
	leave
	.cfi_def_cfa 7, 8
	ret
	.cfi_endproc
.LFE8865:
	.size	_ZNSt7__cxx1112basic_stringIcSt11char_traitsIcESaIcEE13_M_set_lengthEm, .-_ZNSt7__cxx1112basic_stringIcSt11char_traitsIcESaIcEE13_M_set_lengthEm
	.section	.text._ZZNSt7__cxx1112basic_stringIcSt11char_traitsIcESaIcEE12_M_constructIPKcEEvT_S8_St20forward_iterator_tagEN6_GuardC2EPS4_,"axG",@progbits,_ZZNSt7__cxx1112basic_stringIcSt11char_traitsIcESaIcEE12_M_constructIPKcEEvT_S8_St20forward_iterator_tagEN6_GuardC5EPS4_,comdat
	.align 2
	.weak	_ZZNSt7__cxx1112basic_stringIcSt11char_traitsIcESaIcEE12_M_constructIPKcEEvT_S8_St20forward_iterator_tagEN6_GuardC2EPS4_
	.type	_ZZNSt7__cxx1112basic_stringIcSt11char_traitsIcESaIcEE12_M_constructIPKcEEvT_S8_St20forward_iterator_tagEN6_GuardC2EPS4_, @function
_ZZNSt7__cxx1112basic_stringIcSt11char_traitsIcESaIcEE12_M_constructIPKcEEvT_S8_St20forward_iterator_tagEN6_GuardC2EPS4_:
.LFB8879:
	.file 13 "/usr/include/c++/12/bits/basic_string.tcc"
	.loc 13 235 13
	.cfi_startproc
	endbr64
	pushq	%rbp
	.cfi_def_cfa_offset 16
	.cfi_offset 6, -16
	movq	%rsp, %rbp
	.cfi_def_cfa_register 6
	movq	%rdi, -8(%rbp)
	movq	%rsi, -16(%rbp)
.LBB27:
	.loc 13 235 41
	movq	-8(%rbp), %rax
	movq	-16(%rbp), %rdx
	movq	%rdx, (%rax)
.LBE27:
	.loc 13 235 59
	nop
	popq	%rbp
	.cfi_def_cfa 7, 8
	ret
	.cfi_endproc
.LFE8879:
	.size	_ZZNSt7__cxx1112basic_stringIcSt11char_traitsIcESaIcEE12_M_constructIPKcEEvT_S8_St20forward_iterator_tagEN6_GuardC2EPS4_, .-_ZZNSt7__cxx1112basic_stringIcSt11char_traitsIcESaIcEE12_M_constructIPKcEEvT_S8_St20forward_iterator_tagEN6_GuardC2EPS4_
	.weak	_ZZNSt7__cxx1112basic_stringIcSt11char_traitsIcESaIcEE12_M_constructIPKcEEvT_S8_St20forward_iterator_tagEN6_GuardC1EPS4_
	.set	_ZZNSt7__cxx1112basic_stringIcSt11char_traitsIcESaIcEE12_M_constructIPKcEEvT_S8_St20forward_iterator_tagEN6_GuardC1EPS4_,_ZZNSt7__cxx1112basic_stringIcSt11char_traitsIcESaIcEE12_M_constructIPKcEEvT_S8_St20forward_iterator_tagEN6_GuardC2EPS4_
	.section	.text._ZZNSt7__cxx1112basic_stringIcSt11char_traitsIcESaIcEE12_M_constructIPKcEEvT_S8_St20forward_iterator_tagEN6_GuardD2Ev,"axG",@progbits,_ZZNSt7__cxx1112basic_stringIcSt11char_traitsIcESaIcEE12_M_constructIPKcEEvT_S8_St20forward_iterator_tagEN6_GuardD5Ev,comdat
	.align 2
	.weak	_ZZNSt7__cxx1112basic_stringIcSt11char_traitsIcESaIcEE12_M_constructIPKcEEvT_S8_St20forward_iterator_tagEN6_GuardD2Ev
	.type	_ZZNSt7__cxx1112basic_stringIcSt11char_traitsIcESaIcEE12_M_constructIPKcEEvT_S8_St20forward_iterator_tagEN6_GuardD2Ev, @function
_ZZNSt7__cxx1112basic_stringIcSt11char_traitsIcESaIcEE12_M_constructIPKcEEvT_S8_St20forward_iterator_tagEN6_GuardD2Ev:
.LFB8882:
	.loc 13 238 4
	.cfi_startproc
	.cfi_personality 0x9b,DW.ref.__gxx_personality_v0
	.cfi_lsda 0x1b,.LLSDA8882
	endbr64
	pushq	%rbp
	.cfi_def_cfa_offset 16
	.cfi_offset 6, -16
	movq	%rsp, %rbp
	.cfi_def_cfa_register 6
	subq	$16, %rsp
	movq	%rdi, -8(%rbp)
.LBB28:
	.loc 13 238 20
	movq	-8(%rbp), %rax
	movq	(%rax), %rax
	.loc 13 238 16
	testq	%rax, %rax
	je	.L125
	.loc 13 238 32 discriminator 1
	movq	-8(%rbp), %rax
	movq	(%rax), %rax
	.loc 13 238 54 discriminator 1
	movq	%rax, %rdi
	call	_ZNSt7__cxx1112basic_stringIcSt11char_traitsIcESaIcEE10_M_disposeEv@PLT
.L125:
.LBE28:
	.loc 13 238 58
	nop
	leave
	.cfi_def_cfa 7, 8
	ret
	.cfi_endproc
.LFE8882:
	.section	.gcc_except_table._ZZNSt7__cxx1112basic_stringIcSt11char_traitsIcESaIcEE12_M_constructIPKcEEvT_S8_St20forward_iterator_tagEN6_GuardD2Ev,"aG",@progbits,_ZZNSt7__cxx1112basic_stringIcSt11char_traitsIcESaIcEE12_M_constructIPKcEEvT_S8_St20forward_iterator_tagEN6_GuardD5Ev,comdat
.LLSDA8882:
	.byte	0xff
	.byte	0xff
	.byte	0x1
	.uleb128 .LLSDACSE8882-.LLSDACSB8882
.LLSDACSB8882:
.LLSDACSE8882:
	.section	.text._ZZNSt7__cxx1112basic_stringIcSt11char_traitsIcESaIcEE12_M_constructIPKcEEvT_S8_St20forward_iterator_tagEN6_GuardD2Ev,"axG",@progbits,_ZZNSt7__cxx1112basic_stringIcSt11char_traitsIcESaIcEE12_M_constructIPKcEEvT_S8_St20forward_iterator_tagEN6_GuardD5Ev,comdat
	.size	_ZZNSt7__cxx1112basic_stringIcSt11char_traitsIcESaIcEE12_M_constructIPKcEEvT_S8_St20forward_iterator_tagEN6_GuardD2Ev, .-_ZZNSt7__cxx1112basic_stringIcSt11char_traitsIcESaIcEE12_M_constructIPKcEEvT_S8_St20forward_iterator_tagEN6_GuardD2Ev
	.weak	_ZZNSt7__cxx1112basic_stringIcSt11char_traitsIcESaIcEE12_M_constructIPKcEEvT_S8_St20forward_iterator_tagEN6_GuardD1Ev
	.set	_ZZNSt7__cxx1112basic_stringIcSt11char_traitsIcESaIcEE12_M_constructIPKcEEvT_S8_St20forward_iterator_tagEN6_GuardD1Ev,_ZZNSt7__cxx1112basic_stringIcSt11char_traitsIcESaIcEE12_M_constructIPKcEEvT_S8_St20forward_iterator_tagEN6_GuardD2Ev
	.section	.text._ZNSt7__cxx1112basic_stringIcSt11char_traitsIcESaIcEE12_M_constructIPKcEEvT_S8_St20forward_iterator_tag,"axG",@progbits,_ZNSt7__cxx1112basic_stringIcSt11char_traitsIcESaIcEE12_M_constructIPKcEEvT_S8_St20forward_iterator_tag,comdat
	.align 2
	.weak	_ZNSt7__cxx1112basic_stringIcSt11char_traitsIcESaIcEE12_M_constructIPKcEEvT_S8_St20forward_iterator_tag
	.type	_ZNSt7__cxx1112basic_stringIcSt11char_traitsIcESaIcEE12_M_constructIPKcEEvT_S8_St20forward_iterator_tag, @function
_ZNSt7__cxx1112basic_stringIcSt11char_traitsIcESaIcEE12_M_constructIPKcEEvT_S8_St20forward_iterator_tag:
.LFB8877:
	.loc 13 217 7
	.cfi_startproc
	endbr64
	pushq	%rbp
	.cfi_def_cfa_offset 16
	.cfi_offset 6, -16
	movq	%rsp, %rbp
	.cfi_def_cfa_register 6
	subq	$64, %rsp
	movq	%rdi, -40(%rbp)
	movq	%rsi, -48(%rbp)
	movq	%rdx, -56(%rbp)
	.loc 13 217 7
	movq	%fs:40, %rax
	movq	%rax, -8(%rbp)
	xorl	%eax, %eax
	.loc 13 221 57
	movq	-56(%rbp), %rdx
	movq	-48(%rbp), %rax
	movq	%rdx, %rsi
	movq	%rax, %rdi
	call	_ZSt8distanceIPKcENSt15iterator_traitsIT_E15difference_typeES3_S3_@PLT
	.loc 13 221 12
	movq	%rax, -32(%rbp)
	.loc 13 223 13
	movq	-32(%rbp), %rax
	.loc 13 223 2
	cmpq	$15, %rax
	jbe	.L127
	.loc 13 225 13
	leaq	-32(%rbp), %rcx
	movq	-40(%rbp), %rax
	movl	$0, %edx
	movq	%rcx, %rsi
	movq	%rax, %rdi
	call	_ZNSt7__cxx1112basic_stringIcSt11char_traitsIcESaIcEE9_M_createERmm@PLT
	movq	%rax, %rdx
	movq	-40(%rbp), %rax
	movq	%rdx, %rsi
	movq	%rax, %rdi
	call	_ZNSt7__cxx1112basic_stringIcSt11char_traitsIcESaIcEE7_M_dataEPc@PLT
	.loc 13 226 17
	movq	-32(%rbp), %rdx
	movq	-40(%rbp), %rax
	movq	%rdx, %rsi
	movq	%rax, %rdi
	call	_ZNSt7__cxx1112basic_stringIcSt11char_traitsIcESaIcEE11_M_capacityEm@PLT
	jmp	.L128
.L127:
	movq	-40(%rbp), %rax
	movq	%rax, -16(%rbp)
.LBB29:
.LBB30:
	.loc 6 355 32
	call	_ZSt21is_constant_evaluatedv@PLT
	.loc 6 355 2
	testb	%al, %al
	je	.L129
	.loc 6 356 20
	movq	-16(%rbp), %rax
	movb	$0, 16(%rax)
.L129:
	.loc 6 358 22
	movq	-16(%rbp), %rax
	movq	%rax, %rdi
	call	_ZNSt7__cxx1112basic_stringIcSt11char_traitsIcESaIcEE13_M_local_dataEv@PLT
	.loc 6 358 23
	nop
.L128:
.LBE30:
.LBE29:
	.loc 13 241 4
	movq	-40(%rbp), %rdx
	leaq	-24(%rbp), %rax
	movq	%rdx, %rsi
	movq	%rax, %rdi
	call	_ZZNSt7__cxx1112basic_stringIcSt11char_traitsIcESaIcEE12_M_constructIPKcEEvT_S8_St20forward_iterator_tagEN6_GuardC1EPS4_@PLT
	.loc 13 243 21
	movq	-40(%rbp), %rax
	movq	%rax, %rdi
	call	_ZNKSt7__cxx1112basic_stringIcSt11char_traitsIcESaIcEE7_M_dataEv@PLT
	movq	%rax, %rcx
	movq	-56(%rbp), %rdx
	movq	-48(%rbp), %rax
	movq	%rax, %rsi
	movq	%rcx, %rdi
	call	_ZNSt7__cxx1112basic_stringIcSt11char_traitsIcESaIcEE13_S_copy_charsEPcPKcS7_@PLT
	.loc 13 245 21
	movq	$0, -24(%rbp)
	.loc 13 247 15
	movq	-32(%rbp), %rdx
	movq	-40(%rbp), %rax
	movq	%rdx, %rsi
	movq	%rax, %rdi
	call	_ZNSt7__cxx1112basic_stringIcSt11char_traitsIcESaIcEE13_M_set_lengthEm@PLT
	.loc 13 248 7
	leaq	-24(%rbp), %rax
	movq	%rax, %rdi
	call	_ZZNSt7__cxx1112basic_stringIcSt11char_traitsIcESaIcEE12_M_constructIPKcEEvT_S8_St20forward_iterator_tagEN6_GuardD1Ev@PLT
	movq	-8(%rbp), %rax
	subq	%fs:40, %rax
	je	.L131
	call	__stack_chk_fail@PLT
.L131:
	leave
	.cfi_def_cfa 7, 8
	ret
	.cfi_endproc
.LFE8877:
	.size	_ZNSt7__cxx1112basic_stringIcSt11char_traitsIcESaIcEE12_M_constructIPKcEEvT_S8_St20forward_iterator_tag, .-_ZNSt7__cxx1112basic_stringIcSt11char_traitsIcESaIcEE12_M_constructIPKcEEvT_S8_St20forward_iterator_tag
	.section	.text._ZNKSt7__cxx1112basic_stringIcSt11char_traitsIcESaIcEE16_M_get_allocatorEv,"axG",@progbits,_ZNKSt7__cxx1112basic_stringIcSt11char_traitsIcESaIcEE16_M_get_allocatorEv,comdat
	.align 2
	.weak	_ZNKSt7__cxx1112basic_stringIcSt11char_traitsIcESaIcEE16_M_get_allocatorEv
	.type	_ZNKSt7__cxx1112basic_stringIcSt11char_traitsIcESaIcEE16_M_get_allocatorEv, @function
_ZNKSt7__cxx1112basic_stringIcSt11char_traitsIcESaIcEE16_M_get_allocatorEv:
.LFB9006:
	.loc 6 345 7
	.cfi_startproc
	endbr64
	pushq	%rbp
	.cfi_def_cfa_offset 16
	.cfi_offset 6, -16
	movq	%rsp, %rbp
	.cfi_def_cfa_register 6
	movq	%rdi, -8(%rbp)
	.loc 6 346 16
	movq	-8(%rbp), %rax
	.loc 6 346 29
	popq	%rbp
	.cfi_def_cfa 7, 8
	ret
	.cfi_endproc
.LFE9006:
	.size	_ZNKSt7__cxx1112basic_stringIcSt11char_traitsIcESaIcEE16_M_get_allocatorEv, .-_ZNKSt7__cxx1112basic_stringIcSt11char_traitsIcESaIcEE16_M_get_allocatorEv
	.section	.text._ZN9__gnu_cxx14__alloc_traitsISaIcEcE17_S_select_on_copyERKS1_,"axG",@progbits,_ZN9__gnu_cxx14__alloc_traitsISaIcEcE17_S_select_on_copyERKS1_,comdat
	.weak	_ZN9__gnu_cxx14__alloc_traitsISaIcEcE17_S_select_on_copyERKS1_
	.type	_ZN9__gnu_cxx14__alloc_traitsISaIcEcE17_S_select_on_copyERKS1_, @function
_ZN9__gnu_cxx14__alloc_traitsISaIcEcE17_S_select_on_copyERKS1_:
.LFB9007:
	.file 14 "/usr/include/c++/12/ext/alloc_traits.h"
	.loc 14 97 29
	.cfi_startproc
	endbr64
	pushq	%rbp
	.cfi_def_cfa_offset 16
	.cfi_offset 6, -16
	movq	%rsp, %rbp
	.cfi_def_cfa_register 6
	subq	$32, %rsp
	movq	%rdi, -24(%rbp)
	movq	%rsi, -32(%rbp)
	.loc 14 97 29
	movq	%fs:40, %rax
	movq	%rax, -8(%rbp)
	xorl	%eax, %eax
	.loc 14 98 67
	movq	-24(%rbp), %rax
	movq	-32(%rbp), %rdx
	movq	%rdx, %rsi
	movq	%rax, %rdi
	call	_ZNSt16allocator_traitsISaIcEE37select_on_container_copy_constructionERKS0_@PLT
	.loc 14 98 70
	movq	-8(%rbp), %rax
	subq	%fs:40, %rax
	je	.L136
	call	__stack_chk_fail@PLT
.L136:
	movq	-24(%rbp), %rax
	leave
	.cfi_def_cfa 7, 8
	ret
	.cfi_endproc
.LFE9007:
	.size	_ZN9__gnu_cxx14__alloc_traitsISaIcEcE17_S_select_on_copyERKS1_, .-_ZN9__gnu_cxx14__alloc_traitsISaIcEcE17_S_select_on_copyERKS1_
	.section	.text._ZZNSt7__cxx1112basic_stringIcSt11char_traitsIcESaIcEE12_M_constructIPcEEvT_S7_St20forward_iterator_tagEN6_GuardC2EPS4_,"axG",@progbits,_ZZNSt7__cxx1112basic_stringIcSt11char_traitsIcESaIcEE12_M_constructIPcEEvT_S7_St20forward_iterator_tagEN6_GuardC5EPS4_,comdat
	.align 2
	.weak	_ZZNSt7__cxx1112basic_stringIcSt11char_traitsIcESaIcEE12_M_constructIPcEEvT_S7_St20forward_iterator_tagEN6_GuardC2EPS4_
	.type	_ZZNSt7__cxx1112basic_stringIcSt11char_traitsIcESaIcEE12_M_constructIPcEEvT_S7_St20forward_iterator_tagEN6_GuardC2EPS4_, @function
_ZZNSt7__cxx1112basic_stringIcSt11char_traitsIcESaIcEE12_M_constructIPcEEvT_S7_St20forward_iterator_tagEN6_GuardC2EPS4_:
.LFB9010:
	.loc 13 235 13
	.cfi_startproc
	endbr64
	pushq	%rbp
	.cfi_def_cfa_offset 16
	.cfi_offset 6, -16
	movq	%rsp, %rbp
	.cfi_def_cfa_register 6
	movq	%rdi, -8(%rbp)
	movq	%rsi, -16(%rbp)
.LBB31:
	.loc 13 235 41
	movq	-8(%rbp), %rax
	movq	-16(%rbp), %rdx
	movq	%rdx, (%rax)
.LBE31:
	.loc 13 235 59
	nop
	popq	%rbp
	.cfi_def_cfa 7, 8
	ret
	.cfi_endproc
.LFE9010:
	.size	_ZZNSt7__cxx1112basic_stringIcSt11char_traitsIcESaIcEE12_M_constructIPcEEvT_S7_St20forward_iterator_tagEN6_GuardC2EPS4_, .-_ZZNSt7__cxx1112basic_stringIcSt11char_traitsIcESaIcEE12_M_constructIPcEEvT_S7_St20forward_iterator_tagEN6_GuardC2EPS4_
	.weak	_ZZNSt7__cxx1112basic_stringIcSt11char_traitsIcESaIcEE12_M_constructIPcEEvT_S7_St20forward_iterator_tagEN6_GuardC1EPS4_
	.set	_ZZNSt7__cxx1112basic_stringIcSt11char_traitsIcESaIcEE12_M_constructIPcEEvT_S7_St20forward_iterator_tagEN6_GuardC1EPS4_,_ZZNSt7__cxx1112basic_stringIcSt11char_traitsIcESaIcEE12_M_constructIPcEEvT_S7_St20forward_iterator_tagEN6_GuardC2EPS4_
	.section	.text._ZZNSt7__cxx1112basic_stringIcSt11char_traitsIcESaIcEE12_M_constructIPcEEvT_S7_St20forward_iterator_tagEN6_GuardD2Ev,"axG",@progbits,_ZZNSt7__cxx1112basic_stringIcSt11char_traitsIcESaIcEE12_M_constructIPcEEvT_S7_St20forward_iterator_tagEN6_GuardD5Ev,comdat
	.align 2
	.weak	_ZZNSt7__cxx1112basic_stringIcSt11char_traitsIcESaIcEE12_M_constructIPcEEvT_S7_St20forward_iterator_tagEN6_GuardD2Ev
	.type	_ZZNSt7__cxx1112basic_stringIcSt11char_traitsIcESaIcEE12_M_constructIPcEEvT_S7_St20forward_iterator_tagEN6_GuardD2Ev, @function
_ZZNSt7__cxx1112basic_stringIcSt11char_traitsIcESaIcEE12_M_constructIPcEEvT_S7_St20forward_iterator_tagEN6_GuardD2Ev:
.LFB9013:
	.loc 13 238 4
	.cfi_startproc
	.cfi_personality 0x9b,DW.ref.__gxx_personality_v0
	.cfi_lsda 0x1b,.LLSDA9013
	endbr64
	pushq	%rbp
	.cfi_def_cfa_offset 16
	.cfi_offset 6, -16
	movq	%rsp, %rbp
	.cfi_def_cfa_register 6
	subq	$16, %rsp
	movq	%rdi, -8(%rbp)
.LBB32:
	.loc 13 238 20
	movq	-8(%rbp), %rax
	movq	(%rax), %rax
	.loc 13 238 16
	testq	%rax, %rax
	je	.L140
	.loc 13 238 32 discriminator 1
	movq	-8(%rbp), %rax
	movq	(%rax), %rax
	.loc 13 238 54 discriminator 1
	movq	%rax, %rdi
	call	_ZNSt7__cxx1112basic_stringIcSt11char_traitsIcESaIcEE10_M_disposeEv@PLT
.L140:
.LBE32:
	.loc 13 238 58
	nop
	leave
	.cfi_def_cfa 7, 8
	ret
	.cfi_endproc
.LFE9013:
	.section	.gcc_except_table._ZZNSt7__cxx1112basic_stringIcSt11char_traitsIcESaIcEE12_M_constructIPcEEvT_S7_St20forward_iterator_tagEN6_GuardD2Ev,"aG",@progbits,_ZZNSt7__cxx1112basic_stringIcSt11char_traitsIcESaIcEE12_M_constructIPcEEvT_S7_St20forward_iterator_tagEN6_GuardD5Ev,comdat
.LLSDA9013:
	.byte	0xff
	.byte	0xff
	.byte	0x1
	.uleb128 .LLSDACSE9013-.LLSDACSB9013
.LLSDACSB9013:
.LLSDACSE9013:
	.section	.text._ZZNSt7__cxx1112basic_stringIcSt11char_traitsIcESaIcEE12_M_constructIPcEEvT_S7_St20forward_iterator_tagEN6_GuardD2Ev,"axG",@progbits,_ZZNSt7__cxx1112basic_stringIcSt11char_traitsIcESaIcEE12_M_constructIPcEEvT_S7_St20forward_iterator_tagEN6_GuardD5Ev,comdat
	.size	_ZZNSt7__cxx1112basic_stringIcSt11char_traitsIcESaIcEE12_M_constructIPcEEvT_S7_St20forward_iterator_tagEN6_GuardD2Ev, .-_ZZNSt7__cxx1112basic_stringIcSt11char_traitsIcESaIcEE12_M_constructIPcEEvT_S7_St20forward_iterator_tagEN6_GuardD2Ev
	.weak	_ZZNSt7__cxx1112basic_stringIcSt11char_traitsIcESaIcEE12_M_constructIPcEEvT_S7_St20forward_iterator_tagEN6_GuardD1Ev
	.set	_ZZNSt7__cxx1112basic_stringIcSt11char_traitsIcESaIcEE12_M_constructIPcEEvT_S7_St20forward_iterator_tagEN6_GuardD1Ev,_ZZNSt7__cxx1112basic_stringIcSt11char_traitsIcESaIcEE12_M_constructIPcEEvT_S7_St20forward_iterator_tagEN6_GuardD2Ev
	.section	.text._ZNSt7__cxx1112basic_stringIcSt11char_traitsIcESaIcEE12_M_constructIPcEEvT_S7_St20forward_iterator_tag,"axG",@progbits,_ZNSt7__cxx1112basic_stringIcSt11char_traitsIcESaIcEE12_M_constructIPcEEvT_S7_St20forward_iterator_tag,comdat
	.align 2
	.weak	_ZNSt7__cxx1112basic_stringIcSt11char_traitsIcESaIcEE12_M_constructIPcEEvT_S7_St20forward_iterator_tag
	.type	_ZNSt7__cxx1112basic_stringIcSt11char_traitsIcESaIcEE12_M_constructIPcEEvT_S7_St20forward_iterator_tag, @function
_ZNSt7__cxx1112basic_stringIcSt11char_traitsIcESaIcEE12_M_constructIPcEEvT_S7_St20forward_iterator_tag:
.LFB9008:
	.loc 13 217 7
	.cfi_startproc
	endbr64
	pushq	%rbp
	.cfi_def_cfa_offset 16
	.cfi_offset 6, -16
	movq	%rsp, %rbp
	.cfi_def_cfa_register 6
	subq	$64, %rsp
	movq	%rdi, -40(%rbp)
	movq	%rsi, -48(%rbp)
	movq	%rdx, -56(%rbp)
	.loc 13 217 7
	movq	%fs:40, %rax
	movq	%rax, -8(%rbp)
	xorl	%eax, %eax
	.loc 13 221 57
	movq	-56(%rbp), %rdx
	movq	-48(%rbp), %rax
	movq	%rdx, %rsi
	movq	%rax, %rdi
	call	_ZSt8distanceIPcENSt15iterator_traitsIT_E15difference_typeES2_S2_@PLT
	.loc 13 221 12
	movq	%rax, -32(%rbp)
	.loc 13 223 13
	movq	-32(%rbp), %rax
	.loc 13 223 2
	cmpq	$15, %rax
	jbe	.L142
	.loc 13 225 13
	leaq	-32(%rbp), %rcx
	movq	-40(%rbp), %rax
	movl	$0, %edx
	movq	%rcx, %rsi
	movq	%rax, %rdi
	call	_ZNSt7__cxx1112basic_stringIcSt11char_traitsIcESaIcEE9_M_createERmm@PLT
	movq	%rax, %rdx
	movq	-40(%rbp), %rax
	movq	%rdx, %rsi
	movq	%rax, %rdi
	call	_ZNSt7__cxx1112basic_stringIcSt11char_traitsIcESaIcEE7_M_dataEPc@PLT
	.loc 13 226 17
	movq	-32(%rbp), %rdx
	movq	-40(%rbp), %rax
	movq	%rdx, %rsi
	movq	%rax, %rdi
	call	_ZNSt7__cxx1112basic_stringIcSt11char_traitsIcESaIcEE11_M_capacityEm@PLT
	jmp	.L143
.L142:
	movq	-40(%rbp), %rax
	movq	%rax, -16(%rbp)
.LBB33:
.LBB34:
	.loc 6 355 32
	call	_ZSt21is_constant_evaluatedv@PLT
	.loc 6 355 2
	testb	%al, %al
	je	.L144
	.loc 6 356 20
	movq	-16(%rbp), %rax
	movb	$0, 16(%rax)
.L144:
	.loc 6 358 22
	movq	-16(%rbp), %rax
	movq	%rax, %rdi
	call	_ZNSt7__cxx1112basic_stringIcSt11char_traitsIcESaIcEE13_M_local_dataEv@PLT
	.loc 6 358 23
	nop
.L143:
.LBE34:
.LBE33:
	.loc 13 241 4
	movq	-40(%rbp), %rdx
	leaq	-24(%rbp), %rax
	movq	%rdx, %rsi
	movq	%rax, %rdi
	call	_ZZNSt7__cxx1112basic_stringIcSt11char_traitsIcESaIcEE12_M_constructIPcEEvT_S7_St20forward_iterator_tagEN6_GuardC1EPS4_@PLT
	.loc 13 243 21
	movq	-40(%rbp), %rax
	movq	%rax, %rdi
	call	_ZNKSt7__cxx1112basic_stringIcSt11char_traitsIcESaIcEE7_M_dataEv@PLT
	movq	%rax, %rcx
	movq	-56(%rbp), %rdx
	movq	-48(%rbp), %rax
	movq	%rax, %rsi
	movq	%rcx, %rdi
	call	_ZNSt7__cxx1112basic_stringIcSt11char_traitsIcESaIcEE13_S_copy_charsEPcS5_S5_@PLT
	.loc 13 245 21
	movq	$0, -24(%rbp)
	.loc 13 247 15
	movq	-32(%rbp), %rdx
	movq	-40(%rbp), %rax
	movq	%rdx, %rsi
	movq	%rax, %rdi
	call	_ZNSt7__cxx1112basic_stringIcSt11char_traitsIcESaIcEE13_M_set_lengthEm@PLT
	.loc 13 248 7
	leaq	-24(%rbp), %rax
	movq	%rax, %rdi
	call	_ZZNSt7__cxx1112basic_stringIcSt11char_traitsIcESaIcEE12_M_constructIPcEEvT_S7_St20forward_iterator_tagEN6_GuardD1Ev@PLT
	movq	-8(%rbp), %rax
	subq	%fs:40, %rax
	je	.L146
	call	__stack_chk_fail@PLT
.L146:
	leave
	.cfi_def_cfa 7, 8
	ret
	.cfi_endproc
.LFE9008:
	.size	_ZNSt7__cxx1112basic_stringIcSt11char_traitsIcESaIcEE12_M_constructIPcEEvT_S7_St20forward_iterator_tag, .-_ZNSt7__cxx1112basic_stringIcSt11char_traitsIcESaIcEE12_M_constructIPcEEvT_S7_St20forward_iterator_tag
	.section	.text._ZSt19__iterator_categoryIPKcENSt15iterator_traitsIT_E17iterator_categoryERKS3_,"axG",@progbits,_ZSt19__iterator_categoryIPKcENSt15iterator_traitsIT_E17iterator_categoryERKS3_,comdat
	.weak	_ZSt19__iterator_categoryIPKcENSt15iterator_traitsIT_E17iterator_categoryERKS3_
	.type	_ZSt19__iterator_categoryIPKcENSt15iterator_traitsIT_E17iterator_categoryERKS3_, @function
_ZSt19__iterator_categoryIPKcENSt15iterator_traitsIT_E17iterator_categoryERKS3_:
.LFB9048:
	.file 15 "/usr/include/c++/12/bits/stl_iterator_base_types.h"
	.loc 15 238 5
	.cfi_startproc
	endbr64
	pushq	%rbp
	.cfi_def_cfa_offset 16
	.cfi_offset 6, -16
	movq	%rsp, %rbp
	.cfi_def_cfa_register 6
	movq	%rdi, -8(%rbp)
	.loc 15 239 65
	nop
	.loc 15 239 68
	popq	%rbp
	.cfi_def_cfa 7, 8
	ret
	.cfi_endproc
.LFE9048:
	.size	_ZSt19__iterator_categoryIPKcENSt15iterator_traitsIT_E17iterator_categoryERKS3_, .-_ZSt19__iterator_categoryIPKcENSt15iterator_traitsIT_E17iterator_categoryERKS3_
	.section	.rodata
.LC17:
	.string	"show nothing"
	.align 8
.LC18:
	.string	"void tag_invoke::view_base::detail::tag_invoke(Show_t, T&) [with T = tag_invoke::customization::VoidView]"
	.section	.text._ZN10tag_invoke9view_base6detail10tag_invokeINS_13customization8VoidViewEEEvNS1_6Show_tERT_,"axG",@progbits,_ZN10tag_invoke9view_base6detail10tag_invokeINS_13customization8VoidViewEEEvNS1_6Show_tERT_,comdat
	.weak	_ZN10tag_invoke9view_base6detail10tag_invokeINS_13customization8VoidViewEEEvNS1_6Show_tERT_
	.type	_ZN10tag_invoke9view_base6detail10tag_invokeINS_13customization8VoidViewEEEvNS1_6Show_tERT_, @function
_ZN10tag_invoke9view_base6detail10tag_invokeINS_13customization8VoidViewEEEvNS1_6Show_tERT_:
.LFB9251:
	.loc 10 41 6
	.cfi_startproc
	.cfi_personality 0x9b,DW.ref.__gxx_personality_v0
	.cfi_lsda 0x1b,.LLSDA9251
	endbr64
	pushq	%rbp
	.cfi_def_cfa_offset 16
	.cfi_offset 6, -16
	movq	%rsp, %rbp
	.cfi_def_cfa_register 6
	pushq	%rbx
	subq	$72, %rsp
	.cfi_offset 3, -24
	movq	%rdi, -72(%rbp)
	.loc 10 41 6
	movq	%fs:40, %rax
	movq	%rax, -24(%rbp)
	xorl	%eax, %eax
	.loc 10 42 3
	leaq	.LC1(%rip), %rax
	movq	%rax, %rsi
	movq	_ZSt4cout@GOTPCREL(%rip), %rax
	movq	%rax, %rdi
	call	_ZStlsISt11char_traitsIcEERSt13basic_ostreamIcT_ES5_PKc@PLT
	movq	%rax, %rdx
	leaq	.LC2(%rip), %rax
	movq	%rax, %rsi
	movq	%rdx, %rdi
	call	_ZStlsISt11char_traitsIcEERSt13basic_ostreamIcT_ES5_PKc@PLT
	movq	%rax, %rbx
	leaq	-64(%rbp), %rax
	movq	%rax, %rdi
	call	_ZN7LogTime10GetTimeNowB5cxx11Ev@PLT
	leaq	-64(%rbp), %rax
	movq	%rax, %rsi
	movq	%rbx, %rdi
	call	_ZStlsIcSt11char_traitsIcESaIcEERSt13basic_ostreamIT_T0_ES7_RKNSt7__cxx1112basic_stringIS4_S5_T1_EE@PLT
	movq	%rax, %rdx
	leaq	.LC3(%rip), %rax
	movq	%rax, %rsi
	movq	%rdx, %rdi
	call	_ZStlsISt11char_traitsIcEERSt13basic_ostreamIcT_ES5_PKc@PLT
	movq	%rax, %rdx
	leaq	.LC4(%rip), %rax
	movq	%rax, %rsi
	movq	%rdx, %rdi
	call	_ZStlsISt11char_traitsIcEERSt13basic_ostreamIcT_ES5_PKc@PLT
	movq	%rax, %rdx
	leaq	.LC17(%rip), %rax
	movq	%rax, %rsi
	movq	%rdx, %rdi
	call	_ZStlsISt11char_traitsIcEERSt13basic_ostreamIcT_ES5_PKc@PLT
	movq	%rax, %rdx
	leaq	.LC6(%rip), %rax
	movq	%rax, %rsi
	movq	%rdx, %rdi
	call	_ZStlsISt11char_traitsIcEERSt13basic_ostreamIcT_ES5_PKc@PLT
	movq	%rax, %rdx
	leaq	.LC7(%rip), %rax
	movq	%rax, %rsi
	movq	%rdx, %rdi
	call	_ZStlsISt11char_traitsIcEERSt13basic_ostreamIcT_ES5_PKc@PLT
	movq	%rax, %rdx
	leaq	.LC8(%rip), %rax
	movq	%rax, %rsi
	movq	%rdx, %rdi
	call	_ZStlsISt11char_traitsIcEERSt13basic_ostreamIcT_ES5_PKc@PLT
	movl	$42, %esi
	movq	%rax, %rdi
	call	_ZNSolsEi@PLT
	movq	%rax, %rdx
	leaq	.LC9(%rip), %rax
	movq	%rax, %rsi
	movq	%rdx, %rdi
	call	_ZStlsISt11char_traitsIcEERSt13basic_ostreamIcT_ES5_PKc@PLT
	movq	%rax, %rdx
	leaq	.LC18(%rip), %rax
	movq	%rax, %rsi
	movq	%rdx, %rdi
	call	_ZStlsISt11char_traitsIcEERSt13basic_ostreamIcT_ES5_PKc@PLT
	movq	%rax, %rdx
	leaq	.LC11(%rip), %rax
	movq	%rax, %rsi
	movq	%rdx, %rdi
	call	_ZStlsISt11char_traitsIcEERSt13basic_ostreamIcT_ES5_PKc@PLT
	movq	_ZSt4endlIcSt11char_traitsIcEERSt13basic_ostreamIT_T0_ES6_@GOTPCREL(%rip), %rdx
	movq	%rdx, %rsi
	movq	%rax, %rdi
	call	_ZNSolsEPFRSoS_E@PLT
	leaq	-64(%rbp), %rax
	movq	%rax, %rdi
	call	_ZNSt7__cxx1112basic_stringIcSt11char_traitsIcESaIcEED1Ev@PLT
	.loc 10 43 1
	nop
	movq	-24(%rbp), %rax
	subq	%fs:40, %rax
	je	.L150
	call	__stack_chk_fail@PLT
.L150:
	movq	-8(%rbp), %rbx
	leave
	.cfi_def_cfa 7, 8
	ret
	.cfi_endproc
.LFE9251:
	.section	.gcc_except_table._ZN10tag_invoke9view_base6detail10tag_invokeINS_13customization8VoidViewEEEvNS1_6Show_tERT_,"aG",@progbits,_ZN10tag_invoke9view_base6detail10tag_invokeINS_13customization8VoidViewEEEvNS1_6Show_tERT_,comdat
.LLSDA9251:
	.byte	0xff
	.byte	0xff
	.byte	0x1
	.uleb128 .LLSDACSE9251-.LLSDACSB9251
.LLSDACSB9251:
.LLSDACSE9251:
	.section	.text._ZN10tag_invoke9view_base6detail10tag_invokeINS_13customization8VoidViewEEEvNS1_6Show_tERT_,"axG",@progbits,_ZN10tag_invoke9view_base6detail10tag_invokeINS_13customization8VoidViewEEEvNS1_6Show_tERT_,comdat
	.size	_ZN10tag_invoke9view_base6detail10tag_invokeINS_13customization8VoidViewEEEvNS1_6Show_tERT_, .-_ZN10tag_invoke9view_base6detail10tag_invokeINS_13customization8VoidViewEEEvNS1_6Show_tERT_
	.section	.text._ZNSt19__ptr_traits_ptr_toIPccLb0EE10pointer_toERc,"axG",@progbits,_ZNSt19__ptr_traits_ptr_toIPccLb0EE10pointer_toERc,comdat
	.weak	_ZNSt19__ptr_traits_ptr_toIPccLb0EE10pointer_toERc
	.type	_ZNSt19__ptr_traits_ptr_toIPccLb0EE10pointer_toERc, @function
_ZNSt19__ptr_traits_ptr_toIPccLb0EE10pointer_toERc:
.LFB9255:
	.file 16 "/usr/include/c++/12/bits/ptr_traits.h"
	.loc 16 135 7
	.cfi_startproc
	endbr64
	pushq	%rbp
	.cfi_def_cfa_offset 16
	.cfi_offset 6, -16
	movq	%rsp, %rbp
	.cfi_def_cfa_register 6
	subq	$16, %rsp
	movq	%rdi, -8(%rbp)
	.loc 16 136 30
	movq	-8(%rbp), %rax
	movq	%rax, %rdi
	call	_ZSt9addressofIcEPT_RS0_@PLT
	.loc 16 136 37
	leave
	.cfi_def_cfa 7, 8
	ret
	.cfi_endproc
.LFE9255:
	.size	_ZNSt19__ptr_traits_ptr_toIPccLb0EE10pointer_toERc, .-_ZNSt19__ptr_traits_ptr_toIPccLb0EE10pointer_toERc
	.section	.rodata
.LC19:
	.string	"basic_string::_M_create"
	.section	.text._ZNSt7__cxx1112basic_stringIcSt11char_traitsIcESaIcEE9_M_createERmm,"axG",@progbits,_ZNSt7__cxx1112basic_stringIcSt11char_traitsIcESaIcEE9_M_createERmm,comdat
	.align 2
	.weak	_ZNSt7__cxx1112basic_stringIcSt11char_traitsIcESaIcEE9_M_createERmm
	.type	_ZNSt7__cxx1112basic_stringIcSt11char_traitsIcESaIcEE9_M_createERmm, @function
_ZNSt7__cxx1112basic_stringIcSt11char_traitsIcESaIcEE9_M_createERmm:
.LFB9259:
	.loc 13 134 5
	.cfi_startproc
	endbr64
	pushq	%rbp
	.cfi_def_cfa_offset 16
	.cfi_offset 6, -16
	movq	%rsp, %rbp
	.cfi_def_cfa_register 6
	pushq	%rbx
	subq	$40, %rsp
	.cfi_offset 3, -24
	movq	%rdi, -24(%rbp)
	movq	%rsi, -32(%rbp)
	movq	%rdx, -40(%rbp)
	.loc 13 139 22
	movq	-32(%rbp), %rax
	movq	(%rax), %rbx
	.loc 13 139 32
	movq	-24(%rbp), %rax
	movq	%rax, %rdi
	call	_ZNKSt7__cxx1112basic_stringIcSt11char_traitsIcESaIcEE8max_sizeEv@PLT
	.loc 13 139 22
	cmpq	%rbx, %rax
	setb	%al
	.loc 13 139 7
	testb	%al, %al
	je	.L154
	.loc 13 140 27
	leaq	.LC19(%rip), %rax
	movq	%rax, %rdi
	call	_ZSt20__throw_length_errorPKc@PLT
.L154:
	.loc 13 145 22
	movq	-32(%rbp), %rax
	movq	(%rax), %rax
	.loc 13 145 7
	cmpq	%rax, -40(%rbp)
	jnb	.L155
	.loc 13 145 53 discriminator 1
	movq	-32(%rbp), %rax
	movq	(%rax), %rdx
	.loc 13 145 57 discriminator 1
	movq	-40(%rbp), %rax
	addq	%rax, %rax
	.loc 13 145 39 discriminator 1
	cmpq	%rax, %rdx
	jnb	.L155
	.loc 13 147 19
	movq	-40(%rbp), %rax
	leaq	(%rax,%rax), %rdx
	.loc 13 147 15
	movq	-32(%rbp), %rax
	movq	%rdx, (%rax)
	.loc 13 149 19
	movq	-32(%rbp), %rax
	movq	(%rax), %rbx
	.loc 13 149 29
	movq	-24(%rbp), %rax
	movq	%rax, %rdi
	call	_ZNKSt7__cxx1112basic_stringIcSt11char_traitsIcESaIcEE8max_sizeEv@PLT
	.loc 13 149 19
	cmpq	%rbx, %rax
	setb	%al
	.loc 13 149 4
	testb	%al, %al
	je	.L155
	.loc 13 150 27
	movq	-24(%rbp), %rax
	movq	%rax, %rdi
	call	_ZNKSt7__cxx1112basic_stringIcSt11char_traitsIcESaIcEE8max_sizeEv@PLT
	.loc 13 150 17
	movq	-32(%rbp), %rdx
	movq	%rax, (%rdx)
.L155:
	.loc 13 155 37
	movq	-32(%rbp), %rax
	movq	(%rax), %rax
	leaq	1(%rax), %rbx
	.loc 13 155 54
	movq	-24(%rbp), %rax
	movq	%rax, %rdi
	call	_ZNSt7__cxx1112basic_stringIcSt11char_traitsIcESaIcEE16_M_get_allocatorEv@PLT
	.loc 13 155 37
	movq	%rbx, %rsi
	movq	%rax, %rdi
	call	_ZNSt16allocator_traitsISaIcEE8allocateERS0_m@PLT
	.loc 13 156 5
	movq	-8(%rbp), %rbx
	leave
	.cfi_def_cfa 7, 8
	ret
	.cfi_endproc
.LFE9259:
	.size	_ZNSt7__cxx1112basic_stringIcSt11char_traitsIcESaIcEE9_M_createERmm, .-_ZNSt7__cxx1112basic_stringIcSt11char_traitsIcESaIcEE9_M_createERmm
	.section	.text._ZNSt7__cxx1112basic_stringIcSt11char_traitsIcESaIcEE10_M_destroyEm,"axG",@progbits,_ZNSt7__cxx1112basic_stringIcSt11char_traitsIcESaIcEE10_M_destroyEm,comdat
	.align 2
	.weak	_ZNSt7__cxx1112basic_stringIcSt11char_traitsIcESaIcEE10_M_destroyEm
	.type	_ZNSt7__cxx1112basic_stringIcSt11char_traitsIcESaIcEE10_M_destroyEm, @function
_ZNSt7__cxx1112basic_stringIcSt11char_traitsIcESaIcEE10_M_destroyEm:
.LFB9261:
	.loc 6 292 7
	.cfi_startproc
	.cfi_personality 0x9b,DW.ref.__gxx_personality_v0
	.cfi_lsda 0x1b,.LLSDA9261
	endbr64
	pushq	%rbp
	.cfi_def_cfa_offset 16
	.cfi_offset 6, -16
	movq	%rsp, %rbp
	.cfi_def_cfa_register 6
	pushq	%r12
	pushq	%rbx
	subq	$16, %rsp
	.cfi_offset 12, -24
	.cfi_offset 3, -32
	movq	%rdi, -24(%rbp)
	movq	%rsi, -32(%rbp)
	.loc 6 293 34
	movq	-32(%rbp), %rax
	leaq	1(%rax), %rbx
	movq	-24(%rbp), %rax
	movq	%rax, %rdi
	call	_ZNKSt7__cxx1112basic_stringIcSt11char_traitsIcESaIcEE7_M_dataEv@PLT
	movq	%rax, %r12
	.loc 6 293 51
	movq	-24(%rbp), %rax
	movq	%rax, %rdi
	call	_ZNSt7__cxx1112basic_stringIcSt11char_traitsIcESaIcEE16_M_get_allocatorEv@PLT
	.loc 6 293 34
	movq	%rbx, %rdx
	movq	%r12, %rsi
	movq	%rax, %rdi
	call	_ZNSt16allocator_traitsISaIcEE10deallocateERS0_Pcm@PLT
	.loc 6 293 79
	nop
	addq	$16, %rsp
	popq	%rbx
	popq	%r12
	popq	%rbp
	.cfi_def_cfa 7, 8
	ret
	.cfi_endproc
.LFE9261:
	.section	.gcc_except_table._ZNSt7__cxx1112basic_stringIcSt11char_traitsIcESaIcEE10_M_destroyEm,"aG",@progbits,_ZNSt7__cxx1112basic_stringIcSt11char_traitsIcESaIcEE10_M_destroyEm,comdat
.LLSDA9261:
	.byte	0xff
	.byte	0xff
	.byte	0x1
	.uleb128 .LLSDACSE9261-.LLSDACSB9261
.LLSDACSB9261:
.LLSDACSE9261:
	.section	.text._ZNSt7__cxx1112basic_stringIcSt11char_traitsIcESaIcEE10_M_destroyEm,"axG",@progbits,_ZNSt7__cxx1112basic_stringIcSt11char_traitsIcESaIcEE10_M_destroyEm,comdat
	.size	_ZNSt7__cxx1112basic_stringIcSt11char_traitsIcESaIcEE10_M_destroyEm, .-_ZNSt7__cxx1112basic_stringIcSt11char_traitsIcESaIcEE10_M_destroyEm
	.section	.text._ZNKSt7__cxx1112basic_stringIcSt11char_traitsIcESaIcEE13_M_local_dataEv,"axG",@progbits,_ZNKSt7__cxx1112basic_stringIcSt11char_traitsIcESaIcEE13_M_local_dataEv,comdat
	.align 2
	.weak	_ZNKSt7__cxx1112basic_stringIcSt11char_traitsIcESaIcEE13_M_local_dataEv
	.type	_ZNKSt7__cxx1112basic_stringIcSt11char_traitsIcESaIcEE13_M_local_dataEv, @function
_ZNKSt7__cxx1112basic_stringIcSt11char_traitsIcESaIcEE13_M_local_dataEv:
.LFB9262:
	.loc 6 250 7
	.cfi_startproc
	endbr64
	pushq	%rbp
	.cfi_def_cfa_offset 16
	.cfi_offset 6, -16
	movq	%rsp, %rbp
	.cfi_def_cfa_register 6
	subq	$16, %rsp
	movq	%rdi, -8(%rbp)
	.loc 6 253 57
	movq	-8(%rbp), %rax
	addq	$16, %rax
	.loc 6 253 55
	movq	%rax, %rdi
	call	_ZNSt19__ptr_traits_ptr_toIPKcS0_Lb0EE10pointer_toERS0_@PLT
	.loc 6 257 7
	leave
	.cfi_def_cfa 7, 8
	ret
	.cfi_endproc
.LFE9262:
	.size	_ZNKSt7__cxx1112basic_stringIcSt11char_traitsIcESaIcEE13_M_local_dataEv, .-_ZNKSt7__cxx1112basic_stringIcSt11char_traitsIcESaIcEE13_M_local_dataEv
	.section	.text._ZSt19__iterator_categoryIPcENSt15iterator_traitsIT_E17iterator_categoryERKS2_,"axG",@progbits,_ZSt19__iterator_categoryIPcENSt15iterator_traitsIT_E17iterator_categoryERKS2_,comdat
	.weak	_ZSt19__iterator_categoryIPcENSt15iterator_traitsIT_E17iterator_categoryERKS2_
	.type	_ZSt19__iterator_categoryIPcENSt15iterator_traitsIT_E17iterator_categoryERKS2_, @function
_ZSt19__iterator_categoryIPcENSt15iterator_traitsIT_E17iterator_categoryERKS2_:
.LFB9263:
	.loc 15 238 5
	.cfi_startproc
	endbr64
	pushq	%rbp
	.cfi_def_cfa_offset 16
	.cfi_offset 6, -16
	movq	%rsp, %rbp
	.cfi_def_cfa_register 6
	movq	%rdi, -8(%rbp)
	.loc 15 239 65
	nop
	.loc 15 239 68
	popq	%rbp
	.cfi_def_cfa 7, 8
	ret
	.cfi_endproc
.LFE9263:
	.size	_ZSt19__iterator_categoryIPcENSt15iterator_traitsIT_E17iterator_categoryERKS2_, .-_ZSt19__iterator_categoryIPcENSt15iterator_traitsIT_E17iterator_categoryERKS2_
	.section	.text._ZSt8distanceIPKcENSt15iterator_traitsIT_E15difference_typeES3_S3_,"axG",@progbits,_ZSt8distanceIPKcENSt15iterator_traitsIT_E15difference_typeES3_S3_,comdat
	.weak	_ZSt8distanceIPKcENSt15iterator_traitsIT_E15difference_typeES3_S3_
	.type	_ZSt8distanceIPKcENSt15iterator_traitsIT_E15difference_typeES3_S3_, @function
_ZSt8distanceIPKcENSt15iterator_traitsIT_E15difference_typeES3_S3_:
.LFB9274:
	.file 17 "/usr/include/c++/12/bits/stl_iterator_base_funcs.h"
	.loc 17 146 5
	.cfi_startproc
	endbr64
	pushq	%rbp
	.cfi_def_cfa_offset 16
	.cfi_offset 6, -16
	movq	%rsp, %rbp
	.cfi_def_cfa_register 6
	subq	$16, %rsp
	movq	%rdi, -8(%rbp)
	movq	%rsi, -16(%rbp)
	.loc 17 150 33
	leaq	-8(%rbp), %rax
	movq	%rax, %rdi
	call	_ZSt19__iterator_categoryIPKcENSt15iterator_traitsIT_E17iterator_categoryERKS3_@PLT
	.loc 17 149 29
	movq	-8(%rbp), %rax
	movq	-16(%rbp), %rdx
	movq	%rdx, %rsi
	movq	%rax, %rdi
	call	_ZSt10__distanceIPKcENSt15iterator_traitsIT_E15difference_typeES3_S3_St26random_access_iterator_tag@PLT
	.loc 17 151 5
	leave
	.cfi_def_cfa 7, 8
	ret
	.cfi_endproc
.LFE9274:
	.size	_ZSt8distanceIPKcENSt15iterator_traitsIT_E15difference_typeES3_S3_, .-_ZSt8distanceIPKcENSt15iterator_traitsIT_E15difference_typeES3_S3_
	.section	.text._ZNSt7__cxx1112basic_stringIcSt11char_traitsIcESaIcEE13_S_copy_charsEPcPKcS7_,"axG",@progbits,_ZNSt7__cxx1112basic_stringIcSt11char_traitsIcESaIcEE13_S_copy_charsEPcPKcS7_,comdat
	.weak	_ZNSt7__cxx1112basic_stringIcSt11char_traitsIcESaIcEE13_S_copy_charsEPcPKcS7_
	.type	_ZNSt7__cxx1112basic_stringIcSt11char_traitsIcESaIcEE13_S_copy_charsEPcPKcS7_, @function
_ZNSt7__cxx1112basic_stringIcSt11char_traitsIcESaIcEE13_S_copy_charsEPcPKcS7_:
.LFB9275:
	.loc 6 475 7
	.cfi_startproc
	.cfi_personality 0x9b,DW.ref.__gxx_personality_v0
	.cfi_lsda 0x1b,.LLSDA9275
	endbr64
	pushq	%rbp
	.cfi_def_cfa_offset 16
	.cfi_offset 6, -16
	movq	%rsp, %rbp
	.cfi_def_cfa_register 6
	subq	$32, %rsp
	movq	%rdi, -8(%rbp)
	movq	%rsi, -16(%rbp)
	movq	%rdx, -24(%rbp)
	.loc 6 477 33
	movq	-24(%rbp), %rax
	subq	-16(%rbp), %rax
	.loc 6 477 16
	movq	%rax, %rdx
	movq	-16(%rbp), %rcx
	movq	-8(%rbp), %rax
	movq	%rcx, %rsi
	movq	%rax, %rdi
	call	_ZNSt7__cxx1112basic_stringIcSt11char_traitsIcESaIcEE7_S_copyEPcPKcm@PLT
	.loc 6 477 42
	nop
	leave
	.cfi_def_cfa 7, 8
	ret
	.cfi_endproc
.LFE9275:
	.section	.gcc_except_table._ZNSt7__cxx1112basic_stringIcSt11char_traitsIcESaIcEE13_S_copy_charsEPcPKcS7_,"aG",@progbits,_ZNSt7__cxx1112basic_stringIcSt11char_traitsIcESaIcEE13_S_copy_charsEPcPKcS7_,comdat
.LLSDA9275:
	.byte	0xff
	.byte	0xff
	.byte	0x1
	.uleb128 .LLSDACSE9275-.LLSDACSB9275
.LLSDACSB9275:
.LLSDACSE9275:
	.section	.text._ZNSt7__cxx1112basic_stringIcSt11char_traitsIcESaIcEE13_S_copy_charsEPcPKcS7_,"axG",@progbits,_ZNSt7__cxx1112basic_stringIcSt11char_traitsIcESaIcEE13_S_copy_charsEPcPKcS7_,comdat
	.size	_ZNSt7__cxx1112basic_stringIcSt11char_traitsIcESaIcEE13_S_copy_charsEPcPKcS7_, .-_ZNSt7__cxx1112basic_stringIcSt11char_traitsIcESaIcEE13_S_copy_charsEPcPKcS7_
	.section	.text._ZNSt16allocator_traitsISaIcEE37select_on_container_copy_constructionERKS0_,"axG",@progbits,_ZNSt16allocator_traitsISaIcEE37select_on_container_copy_constructionERKS0_,comdat
	.weak	_ZNSt16allocator_traitsISaIcEE37select_on_container_copy_constructionERKS0_
	.type	_ZNSt16allocator_traitsISaIcEE37select_on_container_copy_constructionERKS0_, @function
_ZNSt16allocator_traitsISaIcEE37select_on_container_copy_constructionERKS0_:
.LFB9356:
	.file 18 "/usr/include/c++/12/bits/alloc_traits.h"
	.loc 18 562 7
	.cfi_startproc
	endbr64
	pushq	%rbp
	.cfi_def_cfa_offset 16
	.cfi_offset 6, -16
	movq	%rsp, %rbp
	.cfi_def_cfa_register 6
	subq	$16, %rsp
	movq	%rdi, -8(%rbp)
	movq	%rsi, -16(%rbp)
	.loc 18 563 16
	movq	-16(%rbp), %rdx
	movq	-8(%rbp), %rax
	movq	%rdx, %rsi
	movq	%rax, %rdi
	call	_ZNSaIcEC1ERKS_@PLT
	.loc 18 563 23
	movq	-8(%rbp), %rax
	leave
	.cfi_def_cfa 7, 8
	ret
	.cfi_endproc
.LFE9356:
	.size	_ZNSt16allocator_traitsISaIcEE37select_on_container_copy_constructionERKS0_, .-_ZNSt16allocator_traitsISaIcEE37select_on_container_copy_constructionERKS0_
	.section	.text._ZSt8distanceIPcENSt15iterator_traitsIT_E15difference_typeES2_S2_,"axG",@progbits,_ZSt8distanceIPcENSt15iterator_traitsIT_E15difference_typeES2_S2_,comdat
	.weak	_ZSt8distanceIPcENSt15iterator_traitsIT_E15difference_typeES2_S2_
	.type	_ZSt8distanceIPcENSt15iterator_traitsIT_E15difference_typeES2_S2_, @function
_ZSt8distanceIPcENSt15iterator_traitsIT_E15difference_typeES2_S2_:
.LFB9357:
	.loc 17 146 5
	.cfi_startproc
	endbr64
	pushq	%rbp
	.cfi_def_cfa_offset 16
	.cfi_offset 6, -16
	movq	%rsp, %rbp
	.cfi_def_cfa_register 6
	subq	$16, %rsp
	movq	%rdi, -8(%rbp)
	movq	%rsi, -16(%rbp)
	.loc 17 150 33
	leaq	-8(%rbp), %rax
	movq	%rax, %rdi
	call	_ZSt19__iterator_categoryIPcENSt15iterator_traitsIT_E17iterator_categoryERKS2_@PLT
	.loc 17 149 29
	movq	-8(%rbp), %rax
	movq	-16(%rbp), %rdx
	movq	%rdx, %rsi
	movq	%rax, %rdi
	call	_ZSt10__distanceIPcENSt15iterator_traitsIT_E15difference_typeES2_S2_St26random_access_iterator_tag@PLT
	.loc 17 151 5
	leave
	.cfi_def_cfa 7, 8
	ret
	.cfi_endproc
.LFE9357:
	.size	_ZSt8distanceIPcENSt15iterator_traitsIT_E15difference_typeES2_S2_, .-_ZSt8distanceIPcENSt15iterator_traitsIT_E15difference_typeES2_S2_
	.section	.text._ZNSt7__cxx1112basic_stringIcSt11char_traitsIcESaIcEE13_S_copy_charsEPcS5_S5_,"axG",@progbits,_ZNSt7__cxx1112basic_stringIcSt11char_traitsIcESaIcEE13_S_copy_charsEPcS5_S5_,comdat
	.weak	_ZNSt7__cxx1112basic_stringIcSt11char_traitsIcESaIcEE13_S_copy_charsEPcS5_S5_
	.type	_ZNSt7__cxx1112basic_stringIcSt11char_traitsIcESaIcEE13_S_copy_charsEPcS5_S5_, @function
_ZNSt7__cxx1112basic_stringIcSt11char_traitsIcESaIcEE13_S_copy_charsEPcS5_S5_:
.LFB9358:
	.loc 6 470 7
	.cfi_startproc
	.cfi_personality 0x9b,DW.ref.__gxx_personality_v0
	.cfi_lsda 0x1b,.LLSDA9358
	endbr64
	pushq	%rbp
	.cfi_def_cfa_offset 16
	.cfi_offset 6, -16
	movq	%rsp, %rbp
	.cfi_def_cfa_register 6
	subq	$32, %rsp
	movq	%rdi, -8(%rbp)
	movq	%rsi, -16(%rbp)
	movq	%rdx, -24(%rbp)
	.loc 6 471 33
	movq	-24(%rbp), %rax
	subq	-16(%rbp), %rax
	.loc 6 471 16
	movq	%rax, %rdx
	movq	-16(%rbp), %rcx
	movq	-8(%rbp), %rax
	movq	%rcx, %rsi
	movq	%rax, %rdi
	call	_ZNSt7__cxx1112basic_stringIcSt11char_traitsIcESaIcEE7_S_copyEPcPKcm@PLT
	.loc 6 471 42
	nop
	leave
	.cfi_def_cfa 7, 8
	ret
	.cfi_endproc
.LFE9358:
	.section	.gcc_except_table._ZNSt7__cxx1112basic_stringIcSt11char_traitsIcESaIcEE13_S_copy_charsEPcS5_S5_,"aG",@progbits,_ZNSt7__cxx1112basic_stringIcSt11char_traitsIcESaIcEE13_S_copy_charsEPcS5_S5_,comdat
.LLSDA9358:
	.byte	0xff
	.byte	0xff
	.byte	0x1
	.uleb128 .LLSDACSE9358-.LLSDACSB9358
.LLSDACSB9358:
.LLSDACSE9358:
	.section	.text._ZNSt7__cxx1112basic_stringIcSt11char_traitsIcESaIcEE13_S_copy_charsEPcS5_S5_,"axG",@progbits,_ZNSt7__cxx1112basic_stringIcSt11char_traitsIcESaIcEE13_S_copy_charsEPcS5_S5_,comdat
	.size	_ZNSt7__cxx1112basic_stringIcSt11char_traitsIcESaIcEE13_S_copy_charsEPcS5_S5_, .-_ZNSt7__cxx1112basic_stringIcSt11char_traitsIcESaIcEE13_S_copy_charsEPcS5_S5_
	.section	.text._ZNSt16allocator_traitsISaIcEE8allocateERS0_m,"axG",@progbits,_ZNSt16allocator_traitsISaIcEE8allocateERS0_m,comdat
	.weak	_ZNSt16allocator_traitsISaIcEE8allocateERS0_m
	.type	_ZNSt16allocator_traitsISaIcEE8allocateERS0_m, @function
_ZNSt16allocator_traitsISaIcEE8allocateERS0_m:
.LFB9360:
	.loc 18 463 7
	.cfi_startproc
	endbr64
	pushq	%rbp
	.cfi_def_cfa_offset 16
	.cfi_offset 6, -16
	movq	%rsp, %rbp
	.cfi_def_cfa_register 6
	subq	$32, %rsp
	movq	%rdi, -24(%rbp)
	movq	%rsi, -32(%rbp)
	movq	-24(%rbp), %rax
	movq	%rax, -16(%rbp)
	movq	-32(%rbp), %rax
	movq	%rax, -8(%rbp)
.LBB35:
.LBB36:
	.file 19 "/usr/include/c++/12/bits/allocator.h"
	.loc 19 181 34
	call	_ZSt23__is_constant_evaluatedv@PLT
	.loc 19 181 2
	testb	%al, %al
	je	.L171
	.loc 19 182 43
	movq	-8(%rbp), %rax
	movq	%rax, %rdi
	call	_Znwm@PLT
	.loc 19 182 62
	jmp	.L172
.L171:
	.loc 19 183 40
	movq	-8(%rbp), %rcx
	movq	-16(%rbp), %rax
	movl	$0, %edx
	movq	%rcx, %rsi
	movq	%rax, %rdi
	call	_ZNSt15__new_allocatorIcE8allocateEmPKv@PLT
	.loc 19 183 47
	nop
.L172:
.LBE36:
.LBE35:
	.loc 18 464 35
	leave
	.cfi_def_cfa 7, 8
	ret
	.cfi_endproc
.LFE9360:
	.size	_ZNSt16allocator_traitsISaIcEE8allocateERS0_m, .-_ZNSt16allocator_traitsISaIcEE8allocateERS0_m
	.section	.text._ZNKSt7__cxx1112basic_stringIcSt11char_traitsIcESaIcEE8max_sizeEv,"axG",@progbits,_ZNKSt7__cxx1112basic_stringIcSt11char_traitsIcESaIcEE8max_sizeEv,comdat
	.align 2
	.weak	_ZNKSt7__cxx1112basic_stringIcSt11char_traitsIcESaIcEE8max_sizeEv
	.type	_ZNKSt7__cxx1112basic_stringIcSt11char_traitsIcESaIcEE8max_sizeEv, @function
_ZNKSt7__cxx1112basic_stringIcSt11char_traitsIcESaIcEE8max_sizeEv:
.LFB9485:
	.loc 6 1076 7
	.cfi_startproc
	endbr64
	pushq	%rbp
	.cfi_def_cfa_offset 16
	.cfi_offset 6, -16
	movq	%rsp, %rbp
	.cfi_def_cfa_register 6
	subq	$16, %rsp
	movq	%rdi, -8(%rbp)
	.loc 6 1077 57
	movq	-8(%rbp), %rax
	movq	%rax, %rdi
	call	_ZNKSt7__cxx1112basic_stringIcSt11char_traitsIcESaIcEE16_M_get_allocatorEv@PLT
	.loc 6 1077 40
	movq	%rax, %rdi
	call	_ZNSt16allocator_traitsISaIcEE8max_sizeERKS0_@PLT
	.loc 6 1077 61
	subq	$1, %rax
	.loc 6 1077 68
	shrq	%rax
	.loc 6 1077 71
	leave
	.cfi_def_cfa 7, 8
	ret
	.cfi_endproc
.LFE9485:
	.size	_ZNKSt7__cxx1112basic_stringIcSt11char_traitsIcESaIcEE8max_sizeEv, .-_ZNKSt7__cxx1112basic_stringIcSt11char_traitsIcESaIcEE8max_sizeEv
	.section	.text._ZNSt7__cxx1112basic_stringIcSt11char_traitsIcESaIcEE7_S_copyEPcPKcm,"axG",@progbits,_ZNSt7__cxx1112basic_stringIcSt11char_traitsIcESaIcEE7_S_copyEPcPKcm,comdat
	.weak	_ZNSt7__cxx1112basic_stringIcSt11char_traitsIcESaIcEE7_S_copyEPcPKcm
	.type	_ZNSt7__cxx1112basic_stringIcSt11char_traitsIcESaIcEE7_S_copyEPcPKcm, @function
_ZNSt7__cxx1112basic_stringIcSt11char_traitsIcESaIcEE7_S_copyEPcPKcm:
.LFB9486:
	.loc 6 418 7
	.cfi_startproc
	endbr64
	pushq	%rbp
	.cfi_def_cfa_offset 16
	.cfi_offset 6, -16
	movq	%rsp, %rbp
	.cfi_def_cfa_register 6
	subq	$32, %rsp
	movq	%rdi, -8(%rbp)
	movq	%rsi, -16(%rbp)
	movq	%rdx, -24(%rbp)
	.loc 6 420 2
	cmpq	$1, -24(%rbp)
	jne	.L177
	.loc 6 421 23
	movq	-16(%rbp), %rdx
	movq	-8(%rbp), %rax
	movq	%rdx, %rsi
	movq	%rax, %rdi
	call	_ZNSt11char_traitsIcE6assignERcRKc@PLT
	.loc 6 424 7
	jmp	.L179
.L177:
	.loc 6 423 21
	movq	-24(%rbp), %rdx
	movq	-16(%rbp), %rcx
	movq	-8(%rbp), %rax
	movq	%rcx, %rsi
	movq	%rax, %rdi
	call	_ZNSt11char_traitsIcE4copyEPcPKcm@PLT
.L179:
	.loc 6 424 7
	nop
	leave
	.cfi_def_cfa 7, 8
	ret
	.cfi_endproc
.LFE9486:
	.size	_ZNSt7__cxx1112basic_stringIcSt11char_traitsIcESaIcEE7_S_copyEPcPKcm, .-_ZNSt7__cxx1112basic_stringIcSt11char_traitsIcESaIcEE7_S_copyEPcPKcm
	.section	.text._ZSt9addressofIcEPT_RS0_,"axG",@progbits,_ZSt9addressofIcEPT_RS0_,comdat
	.weak	_ZSt9addressofIcEPT_RS0_
	.type	_ZSt9addressofIcEPT_RS0_, @function
_ZSt9addressofIcEPT_RS0_:
.LFB9525:
	.loc 12 145 5
	.cfi_startproc
	endbr64
	pushq	%rbp
	.cfi_def_cfa_offset 16
	.cfi_offset 6, -16
	movq	%rsp, %rbp
	.cfi_def_cfa_register 6
	subq	$16, %rsp
	movq	%rdi, -8(%rbp)
	.loc 12 146 30
	movq	-8(%rbp), %rax
	movq	%rax, %rdi
	call	_ZSt11__addressofIcEPT_RS0_@PLT
	.loc 12 146 37
	leave
	.cfi_def_cfa 7, 8
	ret
	.cfi_endproc
.LFE9525:
	.size	_ZSt9addressofIcEPT_RS0_, .-_ZSt9addressofIcEPT_RS0_
	.section	.text._ZNSt16allocator_traitsISaIcEE10deallocateERS0_Pcm,"axG",@progbits,_ZNSt16allocator_traitsISaIcEE10deallocateERS0_Pcm,comdat
	.weak	_ZNSt16allocator_traitsISaIcEE10deallocateERS0_Pcm
	.type	_ZNSt16allocator_traitsISaIcEE10deallocateERS0_Pcm, @function
_ZNSt16allocator_traitsISaIcEE10deallocateERS0_Pcm:
.LFB9529:
	.loc 18 495 7
	.cfi_startproc
	endbr64
	pushq	%rbp
	.cfi_def_cfa_offset 16
	.cfi_offset 6, -16
	movq	%rsp, %rbp
	.cfi_def_cfa_register 6
	subq	$64, %rsp
	movq	%rdi, -40(%rbp)
	movq	%rsi, -48(%rbp)
	movq	%rdx, -56(%rbp)
	movq	-40(%rbp), %rax
	movq	%rax, -24(%rbp)
	movq	-48(%rbp), %rax
	movq	%rax, -16(%rbp)
	movq	-56(%rbp), %rax
	movq	%rax, -8(%rbp)
.LBB37:
.LBB38:
	.loc 19 190 34
	call	_ZSt23__is_constant_evaluatedv@PLT
	.loc 19 190 2
	testb	%al, %al
	je	.L183
	.loc 19 192 23
	movq	-16(%rbp), %rax
	movq	%rax, %rdi
	call	_ZdlPv@PLT
	.loc 19 193 6
	jmp	.L184
.L183:
	.loc 19 195 35
	movq	-8(%rbp), %rdx
	movq	-16(%rbp), %rcx
	movq	-24(%rbp), %rax
	movq	%rcx, %rsi
	movq	%rax, %rdi
	call	_ZNSt15__new_allocatorIcE10deallocateEPcm@PLT
.LBE38:
.LBE37:
	.loc 18 496 35
	nop
.L184:
	nop
	leave
	.cfi_def_cfa 7, 8
	ret
	.cfi_endproc
.LFE9529:
	.size	_ZNSt16allocator_traitsISaIcEE10deallocateERS0_Pcm, .-_ZNSt16allocator_traitsISaIcEE10deallocateERS0_Pcm
	.section	.text._ZNSt19__ptr_traits_ptr_toIPKcS0_Lb0EE10pointer_toERS0_,"axG",@progbits,_ZNSt19__ptr_traits_ptr_toIPKcS0_Lb0EE10pointer_toERS0_,comdat
	.weak	_ZNSt19__ptr_traits_ptr_toIPKcS0_Lb0EE10pointer_toERS0_
	.type	_ZNSt19__ptr_traits_ptr_toIPKcS0_Lb0EE10pointer_toERS0_, @function
_ZNSt19__ptr_traits_ptr_toIPKcS0_Lb0EE10pointer_toERS0_:
.LFB9530:
	.loc 16 135 7
	.cfi_startproc
	endbr64
	pushq	%rbp
	.cfi_def_cfa_offset 16
	.cfi_offset 6, -16
	movq	%rsp, %rbp
	.cfi_def_cfa_register 6
	subq	$16, %rsp
	movq	%rdi, -8(%rbp)
	.loc 16 136 30
	movq	-8(%rbp), %rax
	movq	%rax, %rdi
	call	_ZSt9addressofIKcEPT_RS1_@PLT
	.loc 16 136 37
	leave
	.cfi_def_cfa 7, 8
	ret
	.cfi_endproc
.LFE9530:
	.size	_ZNSt19__ptr_traits_ptr_toIPKcS0_Lb0EE10pointer_toERS0_, .-_ZNSt19__ptr_traits_ptr_toIPKcS0_Lb0EE10pointer_toERS0_
	.section	.text._ZSt10__distanceIPKcENSt15iterator_traitsIT_E15difference_typeES3_S3_St26random_access_iterator_tag,"axG",@progbits,_ZSt10__distanceIPKcENSt15iterator_traitsIT_E15difference_typeES3_S3_St26random_access_iterator_tag,comdat
	.weak	_ZSt10__distanceIPKcENSt15iterator_traitsIT_E15difference_typeES3_S3_St26random_access_iterator_tag
	.type	_ZSt10__distanceIPKcENSt15iterator_traitsIT_E15difference_typeES3_S3_St26random_access_iterator_tag, @function
_ZSt10__distanceIPKcENSt15iterator_traitsIT_E15difference_typeES3_S3_St26random_access_iterator_tag:
.LFB9536:
	.loc 17 98 5
	.cfi_startproc
	endbr64
	pushq	%rbp
	.cfi_def_cfa_offset 16
	.cfi_offset 6, -16
	movq	%rsp, %rbp
	.cfi_def_cfa_register 6
	movq	%rdi, -8(%rbp)
	movq	%rsi, -16(%rbp)
	.loc 17 104 23
	movq	-16(%rbp), %rax
	subq	-8(%rbp), %rax
	.loc 17 105 5
	popq	%rbp
	.cfi_def_cfa 7, 8
	ret
	.cfi_endproc
.LFE9536:
	.size	_ZSt10__distanceIPKcENSt15iterator_traitsIT_E15difference_typeES3_S3_St26random_access_iterator_tag, .-_ZSt10__distanceIPKcENSt15iterator_traitsIT_E15difference_typeES3_S3_St26random_access_iterator_tag
	.section	.text._ZSt10__distanceIPcENSt15iterator_traitsIT_E15difference_typeES2_S2_St26random_access_iterator_tag,"axG",@progbits,_ZSt10__distanceIPcENSt15iterator_traitsIT_E15difference_typeES2_S2_St26random_access_iterator_tag,comdat
	.weak	_ZSt10__distanceIPcENSt15iterator_traitsIT_E15difference_typeES2_S2_St26random_access_iterator_tag
	.type	_ZSt10__distanceIPcENSt15iterator_traitsIT_E15difference_typeES2_S2_St26random_access_iterator_tag, @function
_ZSt10__distanceIPcENSt15iterator_traitsIT_E15difference_typeES2_S2_St26random_access_iterator_tag:
.LFB9597:
	.loc 17 98 5
	.cfi_startproc
	endbr64
	pushq	%rbp
	.cfi_def_cfa_offset 16
	.cfi_offset 6, -16
	movq	%rsp, %rbp
	.cfi_def_cfa_register 6
	movq	%rdi, -8(%rbp)
	movq	%rsi, -16(%rbp)
	.loc 17 104 23
	movq	-16(%rbp), %rax
	subq	-8(%rbp), %rax
	.loc 17 105 5
	popq	%rbp
	.cfi_def_cfa 7, 8
	ret
	.cfi_endproc
.LFE9597:
	.size	_ZSt10__distanceIPcENSt15iterator_traitsIT_E15difference_typeES2_S2_St26random_access_iterator_tag, .-_ZSt10__distanceIPcENSt15iterator_traitsIT_E15difference_typeES2_S2_St26random_access_iterator_tag
	.section	.text._ZNSt16allocator_traitsISaIcEE8max_sizeERKS0_,"axG",@progbits,_ZNSt16allocator_traitsISaIcEE8max_sizeERKS0_,comdat
	.weak	_ZNSt16allocator_traitsISaIcEE8max_sizeERKS0_
	.type	_ZNSt16allocator_traitsISaIcEE8max_sizeERKS0_, @function
_ZNSt16allocator_traitsISaIcEE8max_sizeERKS0_:
.LFB9777:
	.loc 18 547 7
	.cfi_startproc
	endbr64
	pushq	%rbp
	.cfi_def_cfa_offset 16
	.cfi_offset 6, -16
	movq	%rsp, %rbp
	.cfi_def_cfa_register 6
	movq	%rdi, -8(%rbp)
	.loc 18 552 39
	movq	$-1, %rax
	.loc 18 554 7
	popq	%rbp
	.cfi_def_cfa 7, 8
	ret
	.cfi_endproc
.LFE9777:
	.size	_ZNSt16allocator_traitsISaIcEE8max_sizeERKS0_, .-_ZNSt16allocator_traitsISaIcEE8max_sizeERKS0_
	.section	.text._ZSt11__addressofIcEPT_RS0_,"axG",@progbits,_ZSt11__addressofIcEPT_RS0_,comdat
	.weak	_ZSt11__addressofIcEPT_RS0_
	.type	_ZSt11__addressofIcEPT_RS0_, @function
_ZSt11__addressofIcEPT_RS0_:
.LFB9793:
	.loc 12 49 5
	.cfi_startproc
	endbr64
	pushq	%rbp
	.cfi_def_cfa_offset 16
	.cfi_offset 6, -16
	movq	%rsp, %rbp
	.cfi_def_cfa_register 6
	movq	%rdi, -8(%rbp)
	.loc 12 50 37
	movq	-8(%rbp), %rax
	.loc 12 50 40
	popq	%rbp
	.cfi_def_cfa 7, 8
	ret
	.cfi_endproc
.LFE9793:
	.size	_ZSt11__addressofIcEPT_RS0_, .-_ZSt11__addressofIcEPT_RS0_
	.section	.text._ZSt9addressofIKcEPT_RS1_,"axG",@progbits,_ZSt9addressofIKcEPT_RS1_,comdat
	.weak	_ZSt9addressofIKcEPT_RS1_
	.type	_ZSt9addressofIKcEPT_RS1_, @function
_ZSt9addressofIKcEPT_RS1_:
.LFB9795:
	.loc 12 145 5
	.cfi_startproc
	endbr64
	pushq	%rbp
	.cfi_def_cfa_offset 16
	.cfi_offset 6, -16
	movq	%rsp, %rbp
	.cfi_def_cfa_register 6
	subq	$16, %rsp
	movq	%rdi, -8(%rbp)
	.loc 12 146 30
	movq	-8(%rbp), %rax
	movq	%rax, %rdi
	call	_ZSt11__addressofIKcEPT_RS1_@PLT
	.loc 12 146 37
	leave
	.cfi_def_cfa 7, 8
	ret
	.cfi_endproc
.LFE9795:
	.size	_ZSt9addressofIKcEPT_RS1_, .-_ZSt9addressofIKcEPT_RS1_
	.section	.text._ZNSt15__new_allocatorIcE8allocateEmPKv,"axG",@progbits,_ZNSt15__new_allocatorIcE8allocateEmPKv,comdat
	.align 2
	.weak	_ZNSt15__new_allocatorIcE8allocateEmPKv
	.type	_ZNSt15__new_allocatorIcE8allocateEmPKv, @function
_ZNSt15__new_allocatorIcE8allocateEmPKv:
.LFB9832:
	.file 20 "/usr/include/c++/12/bits/new_allocator.h"
	.loc 20 112 7
	.cfi_startproc
	endbr64
	pushq	%rbp
	.cfi_def_cfa_offset 16
	.cfi_offset 6, -16
	movq	%rsp, %rbp
	.cfi_def_cfa_register 6
	subq	$32, %rsp
	movq	%rdi, -8(%rbp)
	movq	%rsi, -16(%rbp)
	movq	%rdx, -24(%rbp)
	.loc 20 120 46
	movq	-8(%rbp), %rax
	movq	%rax, %rdi
	call	_ZNKSt15__new_allocatorIcE11_M_max_sizeEv@PLT
	.loc 20 120 27
	cmpq	-16(%rbp), %rax
	setb	%al
	.loc 20 120 22
	movzbl	%al, %eax
	testq	%rax, %rax
	setne	%al
	.loc 20 120 2
	testb	%al, %al
	je	.L198
	.loc 20 126 28
	call	_ZSt17__throw_bad_allocv@PLT
.L198:
	.loc 20 137 48
	movq	-16(%rbp), %rax
	movq	%rax, %rdi
	call	_Znwm@PLT
	.loc 20 137 67
	nop
	.loc 20 138 7
	leave
	.cfi_def_cfa 7, 8
	ret
	.cfi_endproc
.LFE9832:
	.size	_ZNSt15__new_allocatorIcE8allocateEmPKv, .-_ZNSt15__new_allocatorIcE8allocateEmPKv
	.section	.text._ZNSt15__new_allocatorIcE10deallocateEPcm,"axG",@progbits,_ZNSt15__new_allocatorIcE10deallocateEPcm,comdat
	.align 2
	.weak	_ZNSt15__new_allocatorIcE10deallocateEPcm
	.type	_ZNSt15__new_allocatorIcE10deallocateEPcm, @function
_ZNSt15__new_allocatorIcE10deallocateEPcm:
.LFB10054:
	.loc 20 142 7
	.cfi_startproc
	endbr64
	pushq	%rbp
	.cfi_def_cfa_offset 16
	.cfi_offset 6, -16
	movq	%rsp, %rbp
	.cfi_def_cfa_register 6
	subq	$32, %rsp
	movq	%rdi, -8(%rbp)
	movq	%rsi, -16(%rbp)
	movq	%rdx, -24(%rbp)
	.loc 20 158 26
	movq	-24(%rbp), %rdx
	movq	-16(%rbp), %rax
	movq	%rdx, %rsi
	movq	%rax, %rdi
	call	_ZdlPvm@PLT
	.loc 20 159 7
	leave
	.cfi_def_cfa 7, 8
	ret
	.cfi_endproc
.LFE10054:
	.size	_ZNSt15__new_allocatorIcE10deallocateEPcm, .-_ZNSt15__new_allocatorIcE10deallocateEPcm
	.section	.text._ZSt11__addressofIKcEPT_RS1_,"axG",@progbits,_ZSt11__addressofIKcEPT_RS1_,comdat
	.weak	_ZSt11__addressofIKcEPT_RS1_
	.type	_ZSt11__addressofIKcEPT_RS1_, @function
_ZSt11__addressofIKcEPT_RS1_:
.LFB10055:
	.loc 12 49 5
	.cfi_startproc
	endbr64
	pushq	%rbp
	.cfi_def_cfa_offset 16
	.cfi_offset 6, -16
	movq	%rsp, %rbp
	.cfi_def_cfa_register 6
	movq	%rdi, -8(%rbp)
	.loc 12 50 37
	movq	-8(%rbp), %rax
	.loc 12 50 40
	popq	%rbp
	.cfi_def_cfa 7, 8
	ret
	.cfi_endproc
.LFE10055:
	.size	_ZSt11__addressofIKcEPT_RS1_, .-_ZSt11__addressofIKcEPT_RS1_
	.section	.text._ZNKSt15__new_allocatorIcE11_M_max_sizeEv,"axG",@progbits,_ZNKSt15__new_allocatorIcE11_M_max_sizeEv,comdat
	.align 2
	.weak	_ZNKSt15__new_allocatorIcE11_M_max_sizeEv
	.type	_ZNKSt15__new_allocatorIcE11_M_max_sizeEv, @function
_ZNKSt15__new_allocatorIcE11_M_max_sizeEv:
.LFB10075:
	.loc 20 210 7
	.cfi_startproc
	endbr64
	pushq	%rbp
	.cfi_def_cfa_offset 16
	.cfi_offset 6, -16
	movq	%rsp, %rbp
	.cfi_def_cfa_register 6
	movq	%rdi, -8(%rbp)
	.loc 20 213 50
	movabsq	$9223372036854775807, %rax
	.loc 20 217 7
	popq	%rbp
	.cfi_def_cfa 7, 8
	ret
	.cfi_endproc
.LFE10075:
	.size	_ZNKSt15__new_allocatorIcE11_M_max_sizeEv, .-_ZNKSt15__new_allocatorIcE11_M_max_sizeEv
	.weak	_ZTVN10tag_invoke17tag_invoke_1_TestE
	.section	.data.rel.ro._ZTVN10tag_invoke17tag_invoke_1_TestE,"awG",@progbits,_ZTVN10tag_invoke17tag_invoke_1_TestE,comdat
	.align 8
	.type	_ZTVN10tag_invoke17tag_invoke_1_TestE, @object
	.size	_ZTVN10tag_invoke17tag_invoke_1_TestE, 64
_ZTVN10tag_invoke17tag_invoke_1_TestE:
	.quad	0
	.quad	_ZTIN10tag_invoke17tag_invoke_1_TestE
	.quad	_ZN10tag_invoke17tag_invoke_1_TestD1Ev
	.quad	_ZN10tag_invoke17tag_invoke_1_TestD0Ev
	.quad	_ZN7testing4Test5SetUpEv
	.quad	_ZN7testing4Test8TearDownEv
	.quad	_ZN10tag_invoke17tag_invoke_1_Test8TestBodyEv
	.quad	_ZN7testing4Test5SetupEv
	.section	.text._ZN10tag_invoke17tag_invoke_1_TestD2Ev,"axG",@progbits,_ZN10tag_invoke17tag_invoke_1_TestD5Ev,comdat
	.align 2
	.weak	_ZN10tag_invoke17tag_invoke_1_TestD2Ev
	.type	_ZN10tag_invoke17tag_invoke_1_TestD2Ev, @function
_ZN10tag_invoke17tag_invoke_1_TestD2Ev:
.LFB10432:
	.loc 10 59 1
	.cfi_startproc
	endbr64
	pushq	%rbp
	.cfi_def_cfa_offset 16
	.cfi_offset 6, -16
	movq	%rsp, %rbp
	.cfi_def_cfa_register 6
	subq	$16, %rsp
	movq	%rdi, -8(%rbp)
.LBB39:
	.loc 10 59 1
	movq	_ZTVN10tag_invoke17tag_invoke_1_TestE@GOTPCREL(%rip), %rax
	leaq	16(%rax), %rdx
	movq	-8(%rbp), %rax
	movq	%rdx, (%rax)
	movq	-8(%rbp), %rax
	movq	%rax, %rdi
	call	_ZN7testing4TestD2Ev@PLT
.LBE39:
	nop
	leave
	.cfi_def_cfa 7, 8
	ret
	.cfi_endproc
.LFE10432:
	.size	_ZN10tag_invoke17tag_invoke_1_TestD2Ev, .-_ZN10tag_invoke17tag_invoke_1_TestD2Ev
	.weak	_ZN10tag_invoke17tag_invoke_1_TestD1Ev
	.set	_ZN10tag_invoke17tag_invoke_1_TestD1Ev,_ZN10tag_invoke17tag_invoke_1_TestD2Ev
	.section	.text._ZN10tag_invoke17tag_invoke_1_TestD0Ev,"axG",@progbits,_ZN10tag_invoke17tag_invoke_1_TestD5Ev,comdat
	.align 2
	.weak	_ZN10tag_invoke17tag_invoke_1_TestD0Ev
	.type	_ZN10tag_invoke17tag_invoke_1_TestD0Ev, @function
_ZN10tag_invoke17tag_invoke_1_TestD0Ev:
.LFB10434:
	.loc 10 59 1
	.cfi_startproc
	endbr64
	pushq	%rbp
	.cfi_def_cfa_offset 16
	.cfi_offset 6, -16
	movq	%rsp, %rbp
	.cfi_def_cfa_register 6
	subq	$16, %rsp
	movq	%rdi, -8(%rbp)
	.loc 10 59 1
	movq	-8(%rbp), %rax
	movq	%rax, %rdi
	call	_ZN10tag_invoke17tag_invoke_1_TestD1Ev@PLT
	movq	-8(%rbp), %rax
	movl	$16, %esi
	movq	%rax, %rdi
	call	_ZdlPvm@PLT
	leave
	.cfi_def_cfa 7, 8
	ret
	.cfi_endproc
.LFE10434:
	.size	_ZN10tag_invoke17tag_invoke_1_TestD0Ev, .-_ZN10tag_invoke17tag_invoke_1_TestD0Ev
	.weak	_ZTVN7testing8internal15TestFactoryImplIN10tag_invoke17tag_invoke_1_TestEEE
	.section	.data.rel.ro._ZTVN7testing8internal15TestFactoryImplIN10tag_invoke17tag_invoke_1_TestEEE,"awG",@progbits,_ZTVN7testing8internal15TestFactoryImplIN10tag_invoke17tag_invoke_1_TestEEE,comdat
	.align 8
	.type	_ZTVN7testing8internal15TestFactoryImplIN10tag_invoke17tag_invoke_1_TestEEE, @object
	.size	_ZTVN7testing8internal15TestFactoryImplIN10tag_invoke17tag_invoke_1_TestEEE, 40
_ZTVN7testing8internal15TestFactoryImplIN10tag_invoke17tag_invoke_1_TestEEE:
	.quad	0
	.quad	_ZTIN7testing8internal15TestFactoryImplIN10tag_invoke17tag_invoke_1_TestEEE
	.quad	_ZN7testing8internal15TestFactoryImplIN10tag_invoke17tag_invoke_1_TestEED1Ev
	.quad	_ZN7testing8internal15TestFactoryImplIN10tag_invoke17tag_invoke_1_TestEED0Ev
	.quad	_ZN7testing8internal15TestFactoryImplIN10tag_invoke17tag_invoke_1_TestEE10CreateTestEv
	.section	.text._ZN7testing8internal15TestFactoryImplIN10tag_invoke17tag_invoke_1_TestEED2Ev,"axG",@progbits,_ZN7testing8internal15TestFactoryImplIN10tag_invoke17tag_invoke_1_TestEED5Ev,comdat
	.align 2
	.weak	_ZN7testing8internal15TestFactoryImplIN10tag_invoke17tag_invoke_1_TestEED2Ev
	.type	_ZN7testing8internal15TestFactoryImplIN10tag_invoke17tag_invoke_1_TestEED2Ev, @function
_ZN7testing8internal15TestFactoryImplIN10tag_invoke17tag_invoke_1_TestEED2Ev:
.LFB10436:
	.loc 7 470 7
	.cfi_startproc
	endbr64
	pushq	%rbp
	.cfi_def_cfa_offset 16
	.cfi_offset 6, -16
	movq	%rsp, %rbp
	.cfi_def_cfa_register 6
	subq	$16, %rsp
	movq	%rdi, -8(%rbp)
.LBB40:
	.loc 7 470 7
	movq	_ZTVN7testing8internal15TestFactoryImplIN10tag_invoke17tag_invoke_1_TestEEE@GOTPCREL(%rip), %rax
	leaq	16(%rax), %rdx
	movq	-8(%rbp), %rax
	movq	%rdx, (%rax)
	movq	-8(%rbp), %rax
	movq	%rax, %rdi
	call	_ZN7testing8internal15TestFactoryBaseD2Ev@PLT
.LBE40:
	nop
	leave
	.cfi_def_cfa 7, 8
	ret
	.cfi_endproc
.LFE10436:
	.size	_ZN7testing8internal15TestFactoryImplIN10tag_invoke17tag_invoke_1_TestEED2Ev, .-_ZN7testing8internal15TestFactoryImplIN10tag_invoke17tag_invoke_1_TestEED2Ev
	.weak	_ZN7testing8internal15TestFactoryImplIN10tag_invoke17tag_invoke_1_TestEED1Ev
	.set	_ZN7testing8internal15TestFactoryImplIN10tag_invoke17tag_invoke_1_TestEED1Ev,_ZN7testing8internal15TestFactoryImplIN10tag_invoke17tag_invoke_1_TestEED2Ev
	.section	.text._ZN7testing8internal15TestFactoryImplIN10tag_invoke17tag_invoke_1_TestEED0Ev,"axG",@progbits,_ZN7testing8internal15TestFactoryImplIN10tag_invoke17tag_invoke_1_TestEED5Ev,comdat
	.align 2
	.weak	_ZN7testing8internal15TestFactoryImplIN10tag_invoke17tag_invoke_1_TestEED0Ev
	.type	_ZN7testing8internal15TestFactoryImplIN10tag_invoke17tag_invoke_1_TestEED0Ev, @function
_ZN7testing8internal15TestFactoryImplIN10tag_invoke17tag_invoke_1_TestEED0Ev:
.LFB10438:
	.loc 7 470 7
	.cfi_startproc
	endbr64
	pushq	%rbp
	.cfi_def_cfa_offset 16
	.cfi_offset 6, -16
	movq	%rsp, %rbp
	.cfi_def_cfa_register 6
	subq	$16, %rsp
	movq	%rdi, -8(%rbp)
	.loc 7 470 7
	movq	-8(%rbp), %rax
	movq	%rax, %rdi
	call	_ZN7testing8internal15TestFactoryImplIN10tag_invoke17tag_invoke_1_TestEED1Ev@PLT
	movq	-8(%rbp), %rax
	movl	$8, %esi
	movq	%rax, %rdi
	call	_ZdlPvm@PLT
	leave
	.cfi_def_cfa 7, 8
	ret
	.cfi_endproc
.LFE10438:
	.size	_ZN7testing8internal15TestFactoryImplIN10tag_invoke17tag_invoke_1_TestEED0Ev, .-_ZN7testing8internal15TestFactoryImplIN10tag_invoke17tag_invoke_1_TestEED0Ev
	.weak	_ZTVN7testing8internal15TestFactoryBaseE
	.section	.data.rel.ro._ZTVN7testing8internal15TestFactoryBaseE,"awG",@progbits,_ZTVN7testing8internal15TestFactoryBaseE,comdat
	.align 8
	.type	_ZTVN7testing8internal15TestFactoryBaseE, @object
	.size	_ZTVN7testing8internal15TestFactoryBaseE, 40
_ZTVN7testing8internal15TestFactoryBaseE:
	.quad	0
	.quad	_ZTIN7testing8internal15TestFactoryBaseE
	.quad	0
	.quad	0
	.quad	__cxa_pure_virtual
	.weak	_ZTIN7testing8internal15TestFactoryImplIN10tag_invoke17tag_invoke_1_TestEEE
	.section	.data.rel.ro._ZTIN7testing8internal15TestFactoryImplIN10tag_invoke17tag_invoke_1_TestEEE,"awG",@progbits,_ZTIN7testing8internal15TestFactoryImplIN10tag_invoke17tag_invoke_1_TestEEE,comdat
	.align 8
	.type	_ZTIN7testing8internal15TestFactoryImplIN10tag_invoke17tag_invoke_1_TestEEE, @object
	.size	_ZTIN7testing8internal15TestFactoryImplIN10tag_invoke17tag_invoke_1_TestEEE, 24
_ZTIN7testing8internal15TestFactoryImplIN10tag_invoke17tag_invoke_1_TestEEE:
	.quad	_ZTVN10__cxxabiv120__si_class_type_infoE+16
	.quad	_ZTSN7testing8internal15TestFactoryImplIN10tag_invoke17tag_invoke_1_TestEEE
	.quad	_ZTIN7testing8internal15TestFactoryBaseE
	.weak	_ZTSN7testing8internal15TestFactoryImplIN10tag_invoke17tag_invoke_1_TestEEE
	.section	.rodata._ZTSN7testing8internal15TestFactoryImplIN10tag_invoke17tag_invoke_1_TestEEE,"aG",@progbits,_ZTSN7testing8internal15TestFactoryImplIN10tag_invoke17tag_invoke_1_TestEEE,comdat
	.align 32
	.type	_ZTSN7testing8internal15TestFactoryImplIN10tag_invoke17tag_invoke_1_TestEEE, @object
	.size	_ZTSN7testing8internal15TestFactoryImplIN10tag_invoke17tag_invoke_1_TestEEE, 72
_ZTSN7testing8internal15TestFactoryImplIN10tag_invoke17tag_invoke_1_TestEEE:
	.string	"N7testing8internal15TestFactoryImplIN10tag_invoke17tag_invoke_1_TestEEE"
	.weak	_ZTIN10tag_invoke17tag_invoke_1_TestE
	.section	.data.rel.ro._ZTIN10tag_invoke17tag_invoke_1_TestE,"awG",@progbits,_ZTIN10tag_invoke17tag_invoke_1_TestE,comdat
	.align 8
	.type	_ZTIN10tag_invoke17tag_invoke_1_TestE, @object
	.size	_ZTIN10tag_invoke17tag_invoke_1_TestE, 24
_ZTIN10tag_invoke17tag_invoke_1_TestE:
	.quad	_ZTVN10__cxxabiv120__si_class_type_infoE+16
	.quad	_ZTSN10tag_invoke17tag_invoke_1_TestE
	.quad	_ZTIN7testing4TestE
	.weak	_ZTSN10tag_invoke17tag_invoke_1_TestE
	.section	.rodata._ZTSN10tag_invoke17tag_invoke_1_TestE,"aG",@progbits,_ZTSN10tag_invoke17tag_invoke_1_TestE,comdat
	.align 32
	.type	_ZTSN10tag_invoke17tag_invoke_1_TestE, @object
	.size	_ZTSN10tag_invoke17tag_invoke_1_TestE, 34
_ZTSN10tag_invoke17tag_invoke_1_TestE:
	.string	"N10tag_invoke17tag_invoke_1_TestE"
	.weak	_ZTIN7testing8internal15TestFactoryBaseE
	.section	.data.rel.ro._ZTIN7testing8internal15TestFactoryBaseE,"awG",@progbits,_ZTIN7testing8internal15TestFactoryBaseE,comdat
	.align 8
	.type	_ZTIN7testing8internal15TestFactoryBaseE, @object
	.size	_ZTIN7testing8internal15TestFactoryBaseE, 16
_ZTIN7testing8internal15TestFactoryBaseE:
	.quad	_ZTVN10__cxxabiv117__class_type_infoE+16
	.quad	_ZTSN7testing8internal15TestFactoryBaseE
	.weak	_ZTSN7testing8internal15TestFactoryBaseE
	.section	.rodata._ZTSN7testing8internal15TestFactoryBaseE,"aG",@progbits,_ZTSN7testing8internal15TestFactoryBaseE,comdat
	.align 32
	.type	_ZTSN7testing8internal15TestFactoryBaseE, @object
	.size	_ZTSN7testing8internal15TestFactoryBaseE, 37
_ZTSN7testing8internal15TestFactoryBaseE:
	.string	"N7testing8internal15TestFactoryBaseE"
	.section	.rodata
.LC20:
	.string	"1"
.LC21:
	.string	"tag_invoke"
	.text
	.type	_Z41__static_initialization_and_destruction_0ii, @function
_Z41__static_initialization_and_destruction_0ii:
.LFB10495:
	.loc 10 72 1
	.cfi_startproc
	.cfi_personality 0x9b,DW.ref.__gxx_personality_v0
	.cfi_lsda 0x1b,.LLSDA10495
	endbr64
	pushq	%rbp
	.cfi_def_cfa_offset 16
	.cfi_offset 6, -16
	movq	%rsp, %rbp
	.cfi_def_cfa_register 6
	pushq	%r15
	pushq	%r14
	pushq	%r13
	pushq	%r12
	pushq	%rbx
	subq	$120, %rsp
	.cfi_offset 15, -24
	.cfi_offset 14, -32
	.cfi_offset 13, -40
	.cfi_offset 12, -48
	.cfi_offset 3, -56
	movl	%edi, -148(%rbp)
	movl	%esi, -152(%rbp)
	.loc 10 72 1
	movq	%fs:40, %rax
	movq	%rax, -56(%rbp)
	xorl	%eax, %eax
	cmpl	$1, -148(%rbp)
	jne	.L210
	.loc 10 72 1 is_stmt 0 discriminator 1
	cmpl	$65535, -152(%rbp)
	jne	.L210
	.file 21 "/usr/include/c++/12/iostream"
	.loc 21 74 25 is_stmt 1
	leaq	_ZStL8__ioinit(%rip), %rax
	movq	%rax, %rdi
.LEHB13:
	call	_ZNSt8ios_base4InitC1Ev@PLT
	leaq	__dso_handle(%rip), %rax
	movq	%rax, %rdx
	leaq	_ZStL8__ioinit(%rip), %rax
	movq	%rax, %rsi
	movq	_ZNSt8ios_base4InitD1Ev@GOTPCREL(%rip), %rax
	movq	%rax, %rdi
	call	__cxa_atexit@PLT
	.loc 10 59 1
	movl	$8, %edi
	call	_Znwm@PLT
.LEHE13:
	movq	%rax, %rbx
	movq	%rbx, %rdi
	call	_ZN7testing8internal15TestFactoryImplIN10tag_invoke17tag_invoke_1_TestEEC1Ev@PLT
	movl	$0, %r15d
	movl	$59, %esi
	leaq	.LC7(%rip), %rax
	movq	%rax, %rdi
.LEHB14:
	call	_ZN7testing8internal16SuiteApiResolverINS_4TestEE22GetTearDownCaseOrSuiteEPKci@PLT
	movq	%rax, %r13
	movl	$59, %esi
	leaq	.LC7(%rip), %rax
	movq	%rax, %rdi
	call	_ZN7testing8internal16SuiteApiResolverINS_4TestEE19GetSetUpCaseOrSuiteEPKci@PLT
	.loc 10 59 1 is_stmt 0 discriminator 2
	movq	%rax, %r12
	call	_ZN7testing8internal13GetTestTypeIdEv@PLT
.LEHE14:
	.loc 10 59 1 discriminator 4
	movq	%rax, %r14
	leaq	-129(%rbp), %rax
	movq	%rax, %rdi
	call	_ZNSaIcEC1Ev@PLT
	leaq	-129(%rbp), %rdx
	leaq	-128(%rbp), %rax
	leaq	.LC7(%rip), %rcx
	movq	%rcx, %rsi
	movq	%rax, %rdi
.LEHB15:
	call	_ZNSt7__cxx1112basic_stringIcSt11char_traitsIcESaIcEEC1IS3_EEPKcRKS3_@PLT
.LEHE15:
	.loc 10 59 1 discriminator 8
	leaq	-128(%rbp), %rcx
	leaq	-96(%rbp), %rax
	movl	$59, %edx
	movq	%rcx, %rsi
	movq	%rax, %rdi
.LEHB16:
	call	_ZN7testing8internal12CodeLocationC1ERKNSt7__cxx1112basic_stringIcSt11char_traitsIcESaIcEEEi@PLT
.LEHE16:
	.loc 10 59 1 discriminator 10
	leaq	-96(%rbp), %rax
	subq	$8, %rsp
	pushq	%rbx
	pushq	%r13
	pushq	%r12
	movq	%r14, %r9
	movq	%rax, %r8
	movl	$0, %ecx
	movl	$0, %edx
	leaq	.LC20(%rip), %rax
	movq	%rax, %rsi
	leaq	.LC21(%rip), %rax
	movq	%rax, %rdi
.LEHB17:
	.cfi_escape 0x2e,0x20
	call	_ZN7testing8internal23MakeAndRegisterTestInfoEPKcS2_S2_S2_NS0_12CodeLocationEPKvPFvvES7_PNS0_15TestFactoryBaseE@PLT
.LEHE17:
	addq	$32, %rsp
	movq	_ZN10tag_invoke17tag_invoke_1_Test10test_info_E@GOTPCREL(%rip), %rdx
	movq	%rax, (%rdx)
	leaq	-96(%rbp), %rax
	movq	%rax, %rdi
	call	_ZN7testing8internal12CodeLocationD1Ev@PLT
	leaq	-128(%rbp), %rax
	movq	%rax, %rdi
	call	_ZNSt7__cxx1112basic_stringIcSt11char_traitsIcESaIcEED1Ev@PLT
	leaq	-129(%rbp), %rax
	movq	%rax, %rdi
	call	_ZNSaIcED1Ev@PLT
	.loc 10 72 1 is_stmt 1 discriminator 10
	jmp	.L210
.L221:
	endbr64
	.loc 10 59 1
	movq	%rax, %r12
	leaq	-96(%rbp), %rax
	movq	%rax, %rdi
	call	_ZN7testing8internal12CodeLocationD1Ev@PLT
	jmp	.L213
.L220:
	endbr64
	movq	%rax, %r12
.L213:
	.loc 10 59 1 is_stmt 0 discriminator 9
	leaq	-128(%rbp), %rax
	movq	%rax, %rdi
	call	_ZNSt7__cxx1112basic_stringIcSt11char_traitsIcESaIcEED1Ev@PLT
	jmp	.L214
.L219:
	endbr64
	.loc 10 59 1
	movq	%rax, %r12
.L214:
	.loc 10 59 1 discriminator 7
	leaq	-129(%rbp), %rax
	movq	%rax, %rdi
	call	_ZNSaIcED1Ev@PLT
	jmp	.L215
.L218:
	endbr64
	.loc 10 59 1
	movq	%rax, %r12
.L215:
	.loc 10 59 1 discriminator 5
	testb	%r15b, %r15b
	je	.L216
	.loc 10 59 1 discriminator 13
	movl	$8, %esi
	movq	%rbx, %rdi
	call	_ZdlPvm@PLT
.L216:
	movq	%r12, %rax
	movq	%rax, %rdi
.LEHB18:
	call	_Unwind_Resume@PLT
.LEHE18:
.L210:
	.loc 10 72 1 is_stmt 1
	movq	-56(%rbp), %rax
	subq	%fs:40, %rax
	je	.L217
	call	__stack_chk_fail@PLT
.L217:
	leaq	-40(%rbp), %rsp
	popq	%rbx
	popq	%r12
	popq	%r13
	popq	%r14
	popq	%r15
	popq	%rbp
	.cfi_def_cfa 7, 8
	ret
	.cfi_endproc
.LFE10495:
	.section	.gcc_except_table,"a",@progbits
.LLSDA10495:
	.byte	0xff
	.byte	0xff
	.byte	0x1
	.uleb128 .LLSDACSE10495-.LLSDACSB10495
.LLSDACSB10495:
	.uleb128 .LEHB13-.LFB10495
	.uleb128 .LEHE13-.LEHB13
	.uleb128 0
	.uleb128 0
	.uleb128 .LEHB14-.LFB10495
	.uleb128 .LEHE14-.LEHB14
	.uleb128 .L218-.LFB10495
	.uleb128 0
	.uleb128 .LEHB15-.LFB10495
	.uleb128 .LEHE15-.LEHB15
	.uleb128 .L219-.LFB10495
	.uleb128 0
	.uleb128 .LEHB16-.LFB10495
	.uleb128 .LEHE16-.LEHB16
	.uleb128 .L220-.LFB10495
	.uleb128 0
	.uleb128 .LEHB17-.LFB10495
	.uleb128 .LEHE17-.LEHB17
	.uleb128 .L221-.LFB10495
	.uleb128 0
	.uleb128 .LEHB18-.LFB10495
	.uleb128 .LEHE18-.LEHB18
	.uleb128 0
	.uleb128 0
.LLSDACSE10495:
	.text
	.size	_Z41__static_initialization_and_destruction_0ii, .-_Z41__static_initialization_and_destruction_0ii
	.section	.text._ZN10tag_invoke17tag_invoke_1_TestC2Ev,"axG",@progbits,_ZN10tag_invoke17tag_invoke_1_TestC5Ev,comdat
	.align 2
	.weak	_ZN10tag_invoke17tag_invoke_1_TestC2Ev
	.type	_ZN10tag_invoke17tag_invoke_1_TestC2Ev, @function
_ZN10tag_invoke17tag_invoke_1_TestC2Ev:
.LFB10520:
	.loc 10 59 1
	.cfi_startproc
	endbr64
	pushq	%rbp
	.cfi_def_cfa_offset 16
	.cfi_offset 6, -16
	movq	%rsp, %rbp
	.cfi_def_cfa_register 6
	subq	$16, %rsp
	movq	%rdi, -8(%rbp)
.LBB41:
	.loc 10 59 1
	movq	-8(%rbp), %rax
	movq	%rax, %rdi
	call	_ZN7testing4TestC2Ev@PLT
	movq	_ZTVN10tag_invoke17tag_invoke_1_TestE@GOTPCREL(%rip), %rax
	leaq	16(%rax), %rdx
	movq	-8(%rbp), %rax
	movq	%rdx, (%rax)
.LBE41:
	nop
	leave
	.cfi_def_cfa 7, 8
	ret
	.cfi_endproc
.LFE10520:
	.size	_ZN10tag_invoke17tag_invoke_1_TestC2Ev, .-_ZN10tag_invoke17tag_invoke_1_TestC2Ev
	.weak	_ZN10tag_invoke17tag_invoke_1_TestC1Ev
	.set	_ZN10tag_invoke17tag_invoke_1_TestC1Ev,_ZN10tag_invoke17tag_invoke_1_TestC2Ev
	.section	.text._ZN7testing8internal15TestFactoryImplIN10tag_invoke17tag_invoke_1_TestEE10CreateTestEv,"axG",@progbits,_ZN7testing8internal15TestFactoryImplIN10tag_invoke17tag_invoke_1_TestEE10CreateTestEv,comdat
	.align 2
	.weak	_ZN7testing8internal15TestFactoryImplIN10tag_invoke17tag_invoke_1_TestEE10CreateTestEv
	.type	_ZN7testing8internal15TestFactoryImplIN10tag_invoke17tag_invoke_1_TestEE10CreateTestEv, @function
_ZN7testing8internal15TestFactoryImplIN10tag_invoke17tag_invoke_1_TestEE10CreateTestEv:
.LFB10518:
	.loc 7 472 9
	.cfi_startproc
	.cfi_personality 0x9b,DW.ref.__gxx_personality_v0
	.cfi_lsda 0x1b,.LLSDA10518
	endbr64
	pushq	%rbp
	.cfi_def_cfa_offset 16
	.cfi_offset 6, -16
	movq	%rsp, %rbp
	.cfi_def_cfa_register 6
	pushq	%r13
	pushq	%r12
	pushq	%rbx
	subq	$24, %rsp
	.cfi_offset 13, -24
	.cfi_offset 12, -32
	.cfi_offset 3, -40
	movq	%rdi, -40(%rbp)
	.loc 7 472 40
	movl	$16, %edi
.LEHB19:
	call	_Znwm@PLT
.LEHE19:
	movq	%rax, %rbx
	.loc 7 472 44
	movl	$1, %r13d
	.loc 7 472 40
	movq	%rbx, %rdi
.LEHB20:
	call	_ZN10tag_invoke17tag_invoke_1_TestC1Ev@PLT
.LEHE20:
	.loc 7 472 44 discriminator 2
	movq	%rbx, %rax
	jmp	.L228
.L227:
	endbr64
	.loc 7 472 44 is_stmt 0
	movq	%rax, %r12
	testb	%r13b, %r13b
	je	.L226
	.loc 7 472 40 is_stmt 1 discriminator 4
	movl	$16, %esi
	movq	%rbx, %rdi
	call	_ZdlPvm@PLT
.L226:
	movq	%r12, %rax
	movq	%rax, %rdi
.LEHB21:
	call	_Unwind_Resume@PLT
.LEHE21:
.L228:
	.loc 7 472 55
	addq	$24, %rsp
	popq	%rbx
	popq	%r12
	popq	%r13
	popq	%rbp
	.cfi_def_cfa 7, 8
	ret
	.cfi_endproc
.LFE10518:
	.section	.gcc_except_table
.LLSDA10518:
	.byte	0xff
	.byte	0xff
	.byte	0x1
	.uleb128 .LLSDACSE10518-.LLSDACSB10518
.LLSDACSB10518:
	.uleb128 .LEHB19-.LFB10518
	.uleb128 .LEHE19-.LEHB19
	.uleb128 0
	.uleb128 0
	.uleb128 .LEHB20-.LFB10518
	.uleb128 .LEHE20-.LEHB20
	.uleb128 .L227-.LFB10518
	.uleb128 0
	.uleb128 .LEHB21-.LFB10518
	.uleb128 .LEHE21-.LEHB21
	.uleb128 0
	.uleb128 0
.LLSDACSE10518:
	.section	.text._ZN7testing8internal15TestFactoryImplIN10tag_invoke17tag_invoke_1_TestEE10CreateTestEv,"axG",@progbits,_ZN7testing8internal15TestFactoryImplIN10tag_invoke17tag_invoke_1_TestEE10CreateTestEv,comdat
	.size	_ZN7testing8internal15TestFactoryImplIN10tag_invoke17tag_invoke_1_TestEE10CreateTestEv, .-_ZN7testing8internal15TestFactoryImplIN10tag_invoke17tag_invoke_1_TestEE10CreateTestEv
	.text
	.type	_GLOBAL__sub_I_tag_invoke.cpp, @function
_GLOBAL__sub_I_tag_invoke.cpp:
.LFB10602:
	.loc 10 72 1
	.cfi_startproc
	endbr64
	pushq	%rbp
	.cfi_def_cfa_offset 16
	.cfi_offset 6, -16
	movq	%rsp, %rbp
	.cfi_def_cfa_register 6
	.loc 10 72 1
	movl	$65535, %esi
	movl	$1, %edi
	call	_Z41__static_initialization_and_destruction_0ii
	popq	%rbp
	.cfi_def_cfa 7, 8
	ret
	.cfi_endproc
.LFE10602:
	.size	_GLOBAL__sub_I_tag_invoke.cpp, .-_GLOBAL__sub_I_tag_invoke.cpp
	.section	.init_array,"aw"
	.align 8
	.quad	_GLOBAL__sub_I_tag_invoke.cpp
	.weak	__cxa_pure_virtual
	.text
.Letext0:
	.file 22 "/usr/include/c++/12/concepts"
	.file 23 "/usr/include/c++/12/bits/iterator_concepts.h"
	.file 24 "/usr/include/c++/12/bits/ranges_cmp.h"
	.file 25 "/usr/include/c++/12/compare"
	.file 26 "/usr/include/c++/12/bits/atomic_wait.h"
	.file 27 "/usr/include/c++/12/debug/debug.h"
	.file 28 "/usr/include/c++/12/bits/uses_allocator.h"
	.file 29 "/usr/include/c++/12/cstddef"
	.file 30 "/usr/include/c++/12/cwchar"
	.file 31 "/usr/include/c++/12/bits/exception_ptr.h"
	.file 32 "/usr/include/c++/12/cstdint"
	.file 33 "/usr/include/c++/12/clocale"
	.file 34 "/usr/include/c++/12/numbers"
	.file 35 "/usr/include/c++/12/string_view"
	.file 36 "/usr/include/c++/12/cstdlib"
	.file 37 "/usr/include/c++/12/cstdio"
	.file 38 "/usr/include/c++/12/initializer_list"
	.file 39 "/usr/include/c++/12/bits/stringfwd.h"
	.file 40 "/usr/include/c++/12/bits/ios_base.h"
	.file 41 "/usr/include/c++/12/cwctype"
	.file 42 "/usr/include/c++/12/bits/ostream.tcc"
	.file 43 "/usr/include/c++/12/ostream"
	.file 44 "/usr/include/c++/12/bits/shared_ptr_base.h"
	.file 45 "/usr/include/c++/12/bits/atomic_base.h"
	.file 46 "/usr/include/c++/12/bits/std_abs.h"
	.file 47 "/usr/include/c++/12/iosfwd"
	.file 48 "/usr/include/c++/12/ctime"
	.file 49 "/usr/include/c++/12/atomic"
	.file 50 "/usr/include/c++/12/functional"
	.file 51 "/usr/include/c++/12/bits/stl_vector.h"
	.file 52 "/usr/include/c++/12/bits/vector.tcc"
	.file 53 "/usr/include/c++/12/bits/unique_ptr.h"
	.file 54 "/usr/include/c++/12/tuple"
	.file 55 "/usr/include/c++/12/bits/chrono.h"
	.file 56 "/usr/include/c++/12/system_error"
	.file 57 "/usr/include/c++/12/cstring"
	.file 58 "/usr/include/c++/12/bits/postypes.h"
	.file 59 "/usr/include/c++/12/bits/parse_numbers.h"
	.file 60 "/usr/include/c++/12/bits/functexcept.h"
	.file 61 "/usr/lib/gcc/x86_64-linux-gnu/12/include/stddef.h"
	.file 62 "/usr/include/c++/12/bits/predefined_ops.h"
	.file 63 "/usr/include/c++/12/bits/stl_iterator.h"
	.file 64 "/usr/include/x86_64-linux-gnu/bits/types.h"
	.file 65 "/usr/include/x86_64-linux-gnu/bits/stdint-intn.h"
	.file 66 "/usr/include/x86_64-linux-gnu/bits/stdint-uintn.h"
	.file 67 "/usr/include/stdint.h"
	.file 68 "<built-in>"
	.file 69 "/usr/include/x86_64-linux-gnu/bits/types/wint_t.h"
	.file 70 "/usr/include/x86_64-linux-gnu/bits/types/__mbstate_t.h"
	.file 71 "/usr/include/x86_64-linux-gnu/bits/types/mbstate_t.h"
	.file 72 "/usr/include/x86_64-linux-gnu/bits/types/__FILE.h"
	.file 73 "/usr/include/x86_64-linux-gnu/bits/types/struct_FILE.h"
	.file 74 "/usr/include/x86_64-linux-gnu/bits/types/FILE.h"
	.file 75 "/usr/include/wchar.h"
	.file 76 "/usr/include/x86_64-linux-gnu/bits/types/struct_tm.h"
	.file 77 "/usr/include/locale.h"
	.file 78 "/usr/include/x86_64-linux-gnu/bits/types/time_t.h"
	.file 79 "/usr/include/x86_64-linux-gnu/bits/types/struct_timespec.h"
	.file 80 "/usr/include/x86_64-linux-gnu/bits/types/clock_t.h"
	.file 81 "/usr/include/x86_64-linux-gnu/bits/thread-shared-types.h"
	.file 82 "/usr/include/x86_64-linux-gnu/bits/struct_mutex.h"
	.file 83 "/usr/include/x86_64-linux-gnu/bits/pthreadtypes.h"
	.file 84 "/usr/include/stdlib.h"
	.file 85 "/usr/include/x86_64-linux-gnu/bits/types/__fpos_t.h"
	.file 86 "/usr/include/stdio.h"
	.file 87 "/usr/include/x86_64-linux-gnu/bits/wctype-wchar.h"
	.file 88 "/usr/include/wctype.h"
	.file 89 "/usr/include/c++/12/pstl/execution_defs.h"
	.file 90 "/usr/include/c++/12/stdlib.h"
	.file 91 "/usr/include/time.h"
	.file 92 "/usr/include/c++/12/ext/concurrence.h"
	.file 93 "/usr/include/gtest/gtest-printers.h"
	.file 94 "/usr/include/gtest/gtest-matchers.h"
	.file 95 "/usr/include/c++/12/typeinfo"
	.file 96 "/usr/include/gtest/internal/gtest-death-test-internal.h"
	.file 97 "/usr/include/gtest/gtest-test-part.h"
	.file 98 "/usr/include/c++/12/bits/cxxabi_init_exception.h"
	.file 99 "/usr/include/c++/12/cxxabi.h"
	.file 100 "/usr/include/string.h"