	.file	"main.cpp"
	.text
.Ltext0:
	.file 0 "/tmp/tmp.O6S6c6tjik/cmake-build-debug-dev-docker/src_cpp_language/constexpr_test" "/tmp/tmp.O6S6c6tjik/src_cpp_language/constexpr_test/main.cpp"
	.local	_ZStL8__ioinit
	.comm	_ZStL8__ioinit,1,1
	.section	.text._Z9factoriali,"axG",@progbits,_Z9factoriali,comdat
	.weak	_Z9factoriali
	.type	_Z9factoriali, @function
_Z9factoriali:
.LFB2061:
	.file 1 "/tmp/tmp.O6S6c6tjik/src_cpp_language/constexpr_test/main.cpp"
	.loc 1 7 1
	.cfi_startproc
	endbr64
	pushq	%rbp
	.cfi_def_cfa_offset 16
	.cfi_offset 6, -16
	movq	%rsp, %rbp
	.cfi_def_cfa_register 6
	subq	$16, %rsp
	movl	%edi, -4(%rbp)
	.loc 1 8 17
	cmpl	$1, -4(%rbp)
	jle	.L2
	.loc 1 8 37 discriminator 1
	movl	-4(%rbp), %eax
	subl	$1, %eax
	movl	%eax, %edi
	call	_Z9factoriali@PLT
	.loc 1 8 17 discriminator 1
	imull	-4(%rbp), %eax
	.loc 1 8 44 discriminator 1
	jmp	.L4
.L2:
	.loc 1 8 17 discriminator 2
	movl	$1, %eax
.L4:
	.loc 1 9 1 discriminator 5
	leave
	.cfi_def_cfa 7, 8
	ret
	.cfi_endproc
.LFE2061:
	.size	_Z9factoriali, .-_Z9factoriali
	.section	.rodata
.LC0:
	.string	"4! = "
.LC1:
	.string	"! = "
	.align 8
.LC2:
	.string	"\"Hello, world!\" \351\207\214\345\260\217\345\206\231\345\255\227\346\257\215\347\232\204\344\270\252\346\225\260\346\230\257 "
	.text
	.globl	main
	.type	main, @function
main:
.LFB2067:
	.loc 1 48 1
	.cfi_startproc
	endbr64
	pushq	%rbp
	.cfi_def_cfa_offset 16
	.cfi_offset 6, -16
	movq	%rsp, %rbp
	.cfi_def_cfa_register 6
	pushq	%rbx
	subq	$24, %rsp
	.cfi_offset 3, -24
	.loc 1 48 1
	movq	%fs:40, %rax
	movq	%rax, -24(%rbp)
	xorl	%eax, %eax
	.loc 1 49 16
	leaq	.LC0(%rip), %rax
	movq	%rax, %rsi
	movq	_ZSt4cout@GOTPCREL(%rip), %rax
	movq	%rax, %rdi
	call	_ZStlsISt11char_traitsIcEERSt13basic_ostreamIcT_ES5_PKc@PLT
	.loc 1 50 24
	leaq	-30(%rbp), %rax
	movq	%rax, %rdi
	call	_ZN6constNILi24EEC1Ev@PLT
	.loc 1 52 16
	movl	$8, -28(%rbp)
	.loc 1 53 21
	movl	-28(%rbp), %eax
	movl	%eax, %esi
	movq	_ZSt4cout@GOTPCREL(%rip), %rax
	movq	%rax, %rdi
	call	_ZNSolsEi@PLT
	movq	%rax, %rdx
	leaq	.LC1(%rip), %rax
	movq	%rax, %rsi
	movq	%rdx, %rdi
	call	_ZStlsISt11char_traitsIcEERSt13basic_ostreamIcT_ES5_PKc@PLT
	movq	%rax, %rbx
	.loc 1 53 47
	movl	-28(%rbp), %eax
	movl	%eax, %edi
	call	_Z9factoriali@PLT
	movl	%eax, %esi
	movq	%rbx, %rdi
	call	_ZNSolsEi@PLT
	movl	$10, %esi
	movq	%rax, %rdi
	call	_ZStlsISt11char_traitsIcEERSt13basic_ostreamIcT_ES5_c@PLT
	.loc 1 55 16
	leaq	.LC2(%rip), %rax
	movq	%rax, %rsi
	movq	_ZSt4cout@GOTPCREL(%rip), %rax
	movq	%rax, %rdi
	call	_ZStlsISt11char_traitsIcEERSt13basic_ostreamIcT_ES5_PKc@PLT
	.loc 1 56 39
	leaq	-29(%rbp), %rax
	movq	%rax, %rdi
	call	_ZN6constNILi9EEC1Ev@PLT
	.loc 1 57 1
	movl	$0, %eax
	movq	-24(%rbp), %rdx
	subq	%fs:40, %rdx
	je	.L7
	call	__stack_chk_fail@PLT
.L7:
	movq	-8(%rbp), %rbx
	leave
	.cfi_def_cfa 7, 8
	ret
	.cfi_endproc
.LFE2067:
	.size	main, .-main
	.section	.text._ZN6constNILi24EEC2Ev,"axG",@progbits,_ZN6constNILi24EEC5Ev,comdat
	.align 2
	.weak	_ZN6constNILi24EEC2Ev
	.type	_ZN6constNILi24EEC2Ev, @function
_ZN6constNILi24EEC2Ev:
.LFB2383:
	.loc 1 44 3
	.cfi_startproc
	endbr64
	pushq	%rbp
	.cfi_def_cfa_offset 16
	.cfi_offset 6, -16
	movq	%rsp, %rbp
	.cfi_def_cfa_register 6
	subq	$16, %rsp
	movq	%rdi, -8(%rbp)
.LBB2:
	.loc 1 44 29
	movl	$24, %esi
	movq	_ZSt4cout@GOTPCREL(%rip), %rax
	movq	%rax, %rdi
	call	_ZNSolsEi@PLT
	movl	$10, %esi
	movq	%rax, %rdi
	call	_ZStlsISt11char_traitsIcEERSt13basic_ostreamIcT_ES5_c@PLT
.LBE2:
	.loc 1 44 38
	nop
	leave
	.cfi_def_cfa 7, 8
	ret
	.cfi_endproc
.LFE2383:
	.size	_ZN6constNILi24EEC2Ev, .-_ZN6constNILi24EEC2Ev
	.weak	_ZN6constNILi24EEC1Ev
	.set	_ZN6constNILi24EEC1Ev,_ZN6constNILi24EEC2Ev
	.section	.text._ZN6constNILi9EEC2Ev,"axG",@progbits,_ZN6constNILi9EEC5Ev,comdat
	.align 2
	.weak	_ZN6constNILi9EEC2Ev
	.type	_ZN6constNILi9EEC2Ev, @function
_ZN6constNILi9EEC2Ev:
.LFB2387:
	.loc 1 44 3
	.cfi_startproc
	endbr64
	pushq	%rbp
	.cfi_def_cfa_offset 16
	.cfi_offset 6, -16
	movq	%rsp, %rbp
	.cfi_def_cfa_register 6
	subq	$16, %rsp
	movq	%rdi, -8(%rbp)
.LBB3:
	.loc 1 44 29
	movl	$9, %esi
	movq	_ZSt4cout@GOTPCREL(%rip), %rax
	movq	%rax, %rdi
	call	_ZNSolsEi@PLT
	movl	$10, %esi
	movq	%rax, %rdi
	call	_ZStlsISt11char_traitsIcEERSt13basic_ostreamIcT_ES5_c@PLT
.LBE3:
	.loc 1 44 38
	nop
	leave
	.cfi_def_cfa 7, 8
	ret
	.cfi_endproc
.LFE2387:
	.size	_ZN6constNILi9EEC2Ev, .-_ZN6constNILi9EEC2Ev
	.weak	_ZN6constNILi9EEC1Ev
	.set	_ZN6constNILi9EEC1Ev,_ZN6constNILi9EEC2Ev
	.text
	.type	_Z41__static_initialization_and_destruction_0ii, @function
_Z41__static_initialization_and_destruction_0ii:
.LFB2728:
	.loc 1 57 1
	.cfi_startproc
	endbr64
	pushq	%rbp
	.cfi_def_cfa_offset 16
	.cfi_offset 6, -16
	movq	%rsp, %rbp
	.cfi_def_cfa_register 6
	subq	$16, %rsp
	movl	%edi, -4(%rbp)
	movl	%esi, -8(%rbp)
	.loc 1 57 1
	cmpl	$1, -4(%rbp)
	jne	.L12
	.loc 1 57 1 is_stmt 0 discriminator 1
	cmpl	$65535, -8(%rbp)
	jne	.L12
	.file 2 "/usr/include/c++/12/iostream"
	.loc 2 74 25 is_stmt 1
	leaq	_ZStL8__ioinit(%rip), %rax
	movq	%rax, %rdi
	call	_ZNSt8ios_base4InitC1Ev@PLT
	leaq	__dso_handle(%rip), %rax
	movq	%rax, %rdx
	leaq	_ZStL8__ioinit(%rip), %rax
	movq	%rax, %rsi
	movq	_ZNSt8ios_base4InitD1Ev@GOTPCREL(%rip), %rax
	movq	%rax, %rdi
	call	__cxa_atexit@PLT
.L12:
	.loc 1 57 1
	nop
	leave
	.cfi_def_cfa 7, 8
	ret
	.cfi_endproc
.LFE2728:
	.size	_Z41__static_initialization_and_destruction_0ii, .-_Z41__static_initialization_and_destruction_0ii
	.type	_GLOBAL__sub_I_main.cpp, @function
_GLOBAL__sub_I_main.cpp:
.LFB2729:
	.loc 1 57 1
	.cfi_startproc
	endbr64
	pushq	%rbp
	.cfi_def_cfa_offset 16
	.cfi_offset 6, -16
	movq	%rsp, %rbp
	.cfi_def_cfa_register 6
	.loc 1 57 1
	movl	$65535, %esi
	movl	$1, %edi
	call	_Z41__static_initialization_and_destruction_0ii
	popq	%rbp
	.cfi_def_cfa 7, 8
	ret
	.cfi_endproc
.LFE2729:
	.size	_GLOBAL__sub_I_main.cpp, .-_GLOBAL__sub_I_main.cpp
	.section	.init_array,"aw"
	.align 8
	.quad	_GLOBAL__sub_I_main.cpp
	.text
.Letext0:
	.file 3 "<built-in>"
	.file 4 "/usr/lib/gcc/x86_64-linux-gnu/12/include/stddef.h"
	.file 5 "/usr/include/x86_64-linux-gnu/bits/types/wint_t.h"
	.file 6 "/usr/include/x86_64-linux-gnu/bits/types/__mbstate_t.h"
	.file 7 "/usr/include/x86_64-linux-gnu/bits/types/mbstate_t.h"
	.file 8 "/usr/include/x86_64-linux-gnu/bits/types/__FILE.h"
	.file 9 "/usr/include/x86_64-linux-gnu/bits/types/struct_FILE.h"
	.file 10 "/usr/include/x86_64-linux-gnu/bits/types/FILE.h"
	.file 11 "/usr/include/c++/12/cwchar"
	.file 12 "/usr/include/x86_64-linux-gnu/c++/12/bits/c++config.h"
	.file 13 "/usr/include/c++/12/type_traits"
	.file 14 "/usr/include/c++/12/bits/exception_ptr.h"
	.file 15 "/usr/include/c++/12/concepts"
	.file 16 "/usr/include/c++/12/bits/iterator_concepts.h"
	.file 17 "/usr/include/c++/12/bits/ranges_cmp.h"
	.file 18 "/usr/include/c++/12/compare"
	.file 19 "/usr/include/c++/12/bits/char_traits.h"
	.file 20 "/usr/include/c++/12/cstdint"
	.file 21 "/usr/include/c++/12/clocale"
	.file 22 "/usr/include/c++/12/debug/debug.h"
	.file 23 "/usr/include/c++/12/numbers"
	.file 24 "/usr/include/c++/12/cstdlib"
	.file 25 "/usr/include/c++/12/cstdio"
	.file 26 "/usr/include/c++/12/bits/ios_base.h"
	.file 27 "/usr/include/c++/12/cwctype"
	.file 28 "/usr/include/c++/12/bits/ostream.tcc"
	.file 29 "/usr/include/c++/12/iosfwd"
	.file 30 "/usr/include/c++/12/ostream"
	.file 31 "/usr/include/wchar.h"
	.file 32 "/usr/include/x86_64-linux-gnu/bits/types/struct_tm.h"
	.file 33 "/usr/include/c++/12/bits/predefined_ops.h"
	.file 34 "/usr/include/x86_64-linux-gnu/bits/types.h"
	.file 35 "/usr/include/x86_64-linux-gnu/bits/stdint-intn.h"
	.file 36 "/usr/include/x86_64-linux-gnu/bits/stdint-uintn.h"
	.file 37 "/usr/include/stdint.h"
	.file 38 "/usr/include/locale.h"
	.file 39 "/usr/include/c++/12/bits/ptr_traits.h"
	.file 40 "/usr/include/stdlib.h"
	.file 41 "/usr/include/x86_64-linux-gnu/bits/types/__fpos_t.h"
	.file 42 "/usr/include/stdio.h"
	.file 43 "/usr/include/x86_64-linux-gnu/bits/wctype-wchar.h"
	.file 44 "/usr/include/wctype.h"
	.file 45 "/usr/include/c++/12/system_error"
	.section	.note.GNU-stack,"",@progbits
	.section	.note.gnu.property,"a"
	.align 8
	.long	1f - 0f
	.long	4f - 1f
	.long	5
0:
	.string	"GNU"
1:
	.align 8
	.long	0xc0000002
	.long	3f - 2f
2:
	.long	0x3
3:
	.align 8
4:
